B genode_envp
B lx_environ
B _ZN6Genode25env_stack_area_region_mapE
B _ZN6Genode26env_stack_area_ram_sessionE
D genode_argc
D genode_argv
D _ZN6Genode15inhibit_tracingE
T __aeabi_atexit
T __cxa_allocate_dependent_exception
T __cxa_allocate_exception
T __cxa_atexit
T __cxa_bad_cast
T __cxa_bad_typeid
T __cxa_begin_catch
T __cxa_call_terminate
T __cxa_call_unexpected
T __cxa_current_exception_type
T __cxa_end_catch
T __cxa_finalize
T __cxa_free_dependent_exception
T __cxa_free_exception
T __cxa_get_exception_ptr
T __cxa_get_globals
T __cxa_get_globals_fast
T __cxa_guard_abort
T __cxa_guard_acquire
T __cxa_guard_release
T __cxa_pure_virtual
T __cxa_rethrow
T __cxa_throw
T __cxa_throw_bad_array_length
T __cxa_throw_bad_array_new_length
T dl_iterate_phdr
T dl_unwind_find_exidx
T __dynamic_cast
T __gxx_personality_v0
T lx_syscall
T raw_write_str
T stdout_reconnect
T stdout_write
T _Unwind_DeleteException
T _Unwind_Resume
T wait_for_continue
T _Z11genode_exiti
T _Z13genode_atexitPFvvE
T _Z21genode___cxa_finalizePv
T _Z22__ldso_raise_exceptionv
T _Z23init_exception_handlingv
T _ZdlPvPN6Genode11DeallocatorE
T _ZdlPvRN6Genode11DeallocatorE
T _ZN6Genode10Elf_binary11get_segmentEj
T _ZN6Genode10Elf_binary18_ehdr_check_compatEv
T _ZN6Genode10Elf_binary22_ph_table_check_compatEv
T _ZN6Genode10Elf_binaryC1Em
T _ZN6Genode10Elf_binaryC2Em
T _ZN6Genode10Entrypoint16_dispatch_signalERNS_6SignalE
T _ZN6Genode10Entrypoint16schedule_suspendEPFvvES2_
T _ZN6Genode10Entrypoint25_process_incoming_signalsEv
T _ZN6Genode10Entrypoint6manageERNS_22Signal_dispatcher_baseE
T _ZN6Genode10Entrypoint8dissolveERNS_22Signal_dispatcher_baseE
T _ZN6Genode10EntrypointC1ERNS_3EnvE
T _ZN6Genode10EntrypointC1ERNS_3EnvEjPKc
T _ZN6Genode10EntrypointC2ERNS_3EnvE
T _ZN6Genode10EntrypointC2ERNS_3EnvEjPKc
T _ZN6Genode10Ipc_serverC1Ev
T _ZN6Genode10Ipc_serverC2Ev
T _ZN6Genode10Ipc_serverD1Ev
T _ZN6Genode10Ipc_serverD2Ev
T _ZN6Genode10parent_capEv
T _ZN6Genode11Sliced_heap4freeEPvj
T _ZN6Genode11Sliced_heap5allocEjPPv
T _ZN6Genode11Sliced_heapC1ERNS_11Ram_sessionERNS_10Region_mapE
T _ZN6Genode11Sliced_heapC2ERNS_11Ram_sessionERNS_10Region_mapE
T _ZN6Genode11Sliced_heapD0Ev
T _ZN6Genode11Sliced_heapD1Ev
T _ZN6Genode11Sliced_heapD2Ev
T _ZN6Genode12Address_infoC1Em
T _ZN6Genode12Address_infoC2Em
T _ZN6Genode12Local_parent5closeENS_10CapabilityINS_7SessionEEE
T _ZN6Genode12Local_parent7sessionERKNS_13Rpc_in_bufferILj64EEERKNS1_ILj160EEERKNS_8AffinityE
T _ZN6Genode12Local_parentC1ENS_10CapabilityINS_6ParentEEERNS_23Expanding_parent_client21Emergency_ram_reserveERNS_9AllocatorE
T _ZN6Genode12Local_parentC2ENS_10CapabilityINS_6ParentEEERNS_23Expanding_parent_client21Emergency_ram_reserveERNS_9AllocatorE
T _ZN6Genode12Platform_env7_parentEv
T _ZN6Genode12Platform_envC1Ev
T _ZN6Genode12Platform_envC2Ev
T _ZN6Genode13Avl_node_base15_rotate_subtreeEPS0_bRNS0_6PolicyE
T _ZN6Genode13Avl_node_base18_rebalance_subtreeEPS0_RNS0_6PolicyE
T _ZN6Genode13Avl_node_base6_adoptEPS0_bRNS0_6PolicyE
T _ZN6Genode13Avl_node_base6insertEPS0_RNS0_6PolicyE
T _ZN6Genode13Avl_node_base6removeERNS0_6PolicyE
T _ZN6Genode13Avl_node_baseC1Ev
T _ZN6Genode13Avl_node_baseC2Ev
T _ZN6Genode13Shared_objectC1EPKcj
T _ZN6Genode13Shared_objectC2EPKcj
T _ZN6Genode13Shared_objectD1Ev
T _ZN6Genode13Shared_objectD2Ev
T _ZN6Genode13sleep_foreverEv
T _ZN6Genode14ep_sd_registryEv
T _ZN6Genode14ipc_reply_waitERKNS_21Native_capability_tplINS_14Cap_dst_policyEEENS_18Rpc_exception_codeERNS_11Msgbuf_baseES7_
T _ZN6Genode14Rpc_entrypoint13_free_rpc_capERNS_10Pd_sessionENS_21Native_capability_tplINS_14Cap_dst_policyEEE
T _ZN6Genode14Rpc_entrypoint14_alloc_rpc_capERNS_10Pd_sessionENS_21Native_capability_tplINS_14Cap_dst_policyEEEm
T _ZN6Genode14Rpc_entrypoint17reply_signal_infoENS_21Native_capability_tplINS_14Cap_dst_policyEEEmm
T _ZN6Genode14Rpc_entrypoint22_block_until_cap_validEv
T _ZN6Genode14Rpc_entrypoint5entryEv
T _ZN6Genode14Rpc_entrypoint7_manageEPNS_15Rpc_object_baseE
T _ZN6Genode14Rpc_entrypoint8activateEv
T _ZN6Genode14Rpc_entrypoint9_dissolveEPNS_15Rpc_object_baseE
T _ZN6Genode14Rpc_entrypointC1EPNS_10Pd_sessionEjPKcbNS_8Affinity8LocationE
T _ZN6Genode14Rpc_entrypointC2EPNS_10Pd_sessionEjPKcbNS_8Affinity8LocationE
T _ZN6Genode14Rpc_entrypointD0Ev
T _ZN6Genode14Rpc_entrypointD1Ev
T _ZN6Genode14Rpc_entrypointD2Ev
T _ZN6Genode14Signal_context6submitEj
T _ZN6Genode14Signal_contextD0Ev
T _ZN6Genode14Signal_contextD1Ev
T _ZN6Genode14Signal_contextD2Ev
T _ZN6Genode14Timeout_thread11alarm_timerEv
T _ZN6Genode14Timeout_thread5entryEv
T _ZN6Genode15Alarm_scheduler12_setup_alarmERNS_5AlarmEmm
T _ZN6Genode15Alarm_scheduler13next_deadlineEPm
T _ZN6Genode15Alarm_scheduler17schedule_absoluteEPNS_5AlarmEm
T _ZN6Genode15Alarm_scheduler18_get_pending_alarmEv
T _ZN6Genode15Alarm_scheduler23_unsynchronized_dequeueEPNS_5AlarmE
T _ZN6Genode15Alarm_scheduler23_unsynchronized_enqueueEPNS_5AlarmE
T _ZN6Genode15Alarm_scheduler6handleEm
T _ZN6Genode15Alarm_scheduler7discardEPNS_5AlarmE
T _ZN6Genode15Alarm_scheduler8scheduleEPNS_5AlarmEm
T _ZN6Genode15Alarm_schedulerD1Ev
T _ZN6Genode15Alarm_schedulerD2Ev
T _ZN6Genode15Cancelable_lock4lockEv
T _ZN6Genode15Cancelable_lock6unlockEv
T _ZN6Genode15Cancelable_lock9Applicant7wake_upEv
T _ZN6Genode15Cancelable_lockC1ENS0_5StateE
T _ZN6Genode15Cancelable_lockC2ENS0_5StateE
T _ZN6Genode15Region_map_mmap10_map_localENS_10CapabilityINS_9DataspaceEEEjmbmbb
T _ZN6Genode15Region_map_mmap12_add_to_rmapERKNS_6RegionE
T _ZN6Genode15Region_map_mmap13_dataspace_fdENS_10CapabilityINS_9DataspaceEEE
T _ZN6Genode15Region_map_mmap14_reserve_localEbmj
T _ZN6Genode15Region_map_mmap15_dataspace_sizeENS_10CapabilityINS_9DataspaceEEE
T _ZN6Genode15Region_map_mmap19_dataspace_writableENS_10CapabilityINS_9DataspaceEEE
T _ZN6Genode15Region_map_mmap6attachENS_10CapabilityINS_9DataspaceEEEjlbNS_10Region_map10Local_addrEb
T _ZN6Genode15Region_map_mmap6detachENS_10Region_map10Local_addrE
T _ZN6Genode15Signal_receiver12local_submitENS_6Signal4DataE
T _ZN6Genode15Signal_receiver14pending_signalEv
T _ZN6Genode15Signal_receiver15wait_for_signalEv
T _ZN6Genode15Signal_receiver16block_for_signalEv
T _ZN6Genode15Signal_receiver16dispatch_signalsEPNS_13Signal_sourceE
T _ZN6Genode15Signal_receiver20_platform_destructorEv
T _ZN6Genode15Signal_receiver24_platform_begin_dissolveEPNS_14Signal_contextE
T _ZN6Genode15Signal_receiver24_unsynchronized_dissolveEPNS_14Signal_contextE
T _ZN6Genode15Signal_receiver25_platform_finish_dissolveEPNS_14Signal_contextE
T _ZN6Genode15Signal_receiver6manageEPNS_14Signal_contextE
T _ZN6Genode15Signal_receiver7pendingEv
T _ZN6Genode15Signal_receiver8dissolveEPNS_14Signal_contextE
T _ZN6Genode15Signal_receiverC1Ev
T _ZN6Genode15Signal_receiverC2Ev
T _ZN6Genode15Signal_receiverD1Ev
T _ZN6Genode15Signal_receiverD2Ev
T _ZN6Genode15Stack_allocator11base_to_idxEm
T _ZN6Genode15Stack_allocator11idx_to_baseEj
T _ZN6Genode15Stack_allocator12addr_to_baseEPv
T _ZN6Genode15Stack_allocator13base_to_stackEm
T _ZN6Genode15Stack_allocator15stack_allocatorEv
T _ZN6Genode15Stack_allocator4freeEPNS_5StackE
T _ZN6Genode15Stack_allocator5allocEPNS_6ThreadEb
T _ZN6Genode17Platform_env_base18reinit_main_threadERNS_10CapabilityINS_10Region_mapEEE
T _ZN6Genode17Platform_env_base6reinitENS_14Cap_dst_policy3DstEl
T _ZN6Genode17Region_map_client13fault_handlerENS_10CapabilityINS_14Signal_contextEEE
T _ZN6Genode17Region_map_client5stateEv
T _ZN6Genode17Region_map_client6attachENS_10CapabilityINS_9DataspaceEEEjlbNS_10Region_map10Local_addrEb
T _ZN6Genode17Region_map_client6detachENS_10Region_map10Local_addrE
T _ZN6Genode17Region_map_client9dataspaceEv
T _ZN6Genode17Region_map_clientC1ENS_10CapabilityINS_10Region_mapEEE
T _ZN6Genode17Region_map_clientC2ENS_10CapabilityINS_10Region_mapEEE
T _ZN6Genode17Rm_session_client6createEj
T _ZN6Genode17Rm_session_client7destroyENS_10CapabilityINS_10Region_mapEEE
T _ZN6Genode17Rm_session_clientC1ENS_10CapabilityINS_10Rm_sessionEEE
T _ZN6Genode17Rm_session_clientC2ENS_10CapabilityINS_10Rm_sessionEEE
T _ZN6Genode18Allocator_avl_base10_add_blockEPNS0_5BlockEmjb
T _ZN6Genode18Allocator_avl_base10alloc_addrEjm
T _ZN6Genode18Allocator_avl_base12remove_rangeEmj
T _ZN6Genode18Allocator_avl_base13alloc_alignedEjPPvimm
T _ZN6Genode18Allocator_avl_base14any_block_addrEPm
T _ZN6Genode18Allocator_avl_base14_destroy_blockEPNS0_5BlockE
T _ZN6Genode18Allocator_avl_base15_cut_from_blockEPNS0_5BlockEmjS2_S2_
T _ZN6Genode18Allocator_avl_base20_find_any_used_blockEPNS0_5BlockE
T _ZN6Genode18Allocator_avl_base21_alloc_block_metadataEv
T _ZN6Genode18Allocator_avl_base26_alloc_two_blocks_metadataEPPNS0_5BlockES3_
T _ZN6Genode18Allocator_avl_base30_revert_allocations_and_rangesEv
T _ZN6Genode18Allocator_avl_base4freeEPv
T _ZN6Genode18Allocator_avl_base5Block13find_best_fitEjjmm
T _ZN6Genode18Allocator_avl_base5Block15find_by_addressEmjb
T _ZN6Genode18Allocator_avl_base5Block16avail_in_subtreeEv
T _ZN6Genode18Allocator_avl_base5Block9recomputeEv
T _ZN6Genode18Allocator_avl_base9add_rangeEmj
T _ZN6Genode18server_socket_pairEv
T _ZN6Genode18Signal_transmitter6submitEj
T _ZN6Genode18Signal_transmitter7contextENS_10CapabilityINS_14Signal_contextEEE
T _ZN6Genode18Signal_transmitter7contextEv
T _ZN6Genode18Signal_transmitterC1ENS_10CapabilityINS_14Signal_contextEEE
T _ZN6Genode18Signal_transmitterC2ENS_10CapabilityINS_14Signal_contextEEE
T _ZN6Genode19bootstrap_componentEv
T _ZN6Genode21component_entry_pointERNS_3EnvE
T _ZN6Genode21destroy_signal_threadEv
T _ZN6Genode23Expanding_parent_client17_fallback_sig_capEv
T _ZN6Genode23Expanding_parent_client27_wait_for_resource_responseEv
T _ZN6Genode26destroy_server_socket_pairENS_11Socket_pairE
T _ZN6Genode31call_global_static_constructorsEv
T _ZN6Genode3envEv
T _ZN6Genode3Log3logEv
T _ZN6Genode3Log8_acquireENS0_4TypeE
T _ZN6Genode3Log8_releaseEv
T _ZN6Genode4Heap11quota_limitEj
T _ZN6Genode4Heap14Dataspace_poolD1Ev
T _ZN6Genode4Heap14Dataspace_poolD2Ev
T _ZN6Genode4Heap16_try_local_allocEjPPv
T _ZN6Genode4Heap19_allocate_dataspaceEjb
T _ZN6Genode4Heap21_unsynchronized_allocEjPPv
T _ZN6Genode4Heap4freeEPvj
T _ZN6Genode4Heap5allocEjPPv
T _ZN6Genode4HeapC1EPNS_11Ram_sessionEPNS_10Region_mapEjPvj
T _ZN6Genode4HeapC2EPNS_11Ram_sessionEPNS_10Region_mapEjPvj
T _ZN6Genode4HeapD0Ev
T _ZN6Genode4HeapD1Ev
T _ZN6Genode4HeapD2Ev
T _ZN6Genode4Slab10_insert_sbEPNS0_5BlockE
T _ZN6Genode4Slab13any_used_elemEv
T _ZN6Genode4Slab13_free_curr_sbEv
T _ZN6Genode4Slab15_new_slab_blockEv
T _ZN6Genode4Slab22_release_backing_storeEPNS0_5BlockE
T _ZN6Genode4Slab5allocEjPPv
T _ZN6Genode4Slab5Block11_slab_entryEi
T _ZN6Genode4Slab5Block14any_used_entryEv
T _ZN6Genode4Slab5Block15_slab_entry_idxEPNS0_5EntryE
T _ZN6Genode4Slab5Block5allocEv
T _ZN6Genode4Slab5Block9inc_availERNS0_5EntryE
T _ZN6Genode4Slab5_freeEPv
T _ZN6Genode4Slab9insert_sbEPv
T _ZN6Genode4SlabC1EjjPvPNS_9AllocatorE
T _ZN6Genode4SlabC2EjjPvPNS_9AllocatorE
T _ZN6Genode4SlabD0Ev
T _ZN6Genode4SlabD1Ev
T _ZN6Genode4SlabD2Ev
T _ZN6Genode5AlarmD0Ev
T _ZN6Genode5AlarmD1Ev
T _ZN6Genode5AlarmD2Ev
T _ZN6Genode5Child10yield_sighENS_10CapabilityINS_14Signal_contextEEE
T _ZN6Genode5Child12_add_sessionERKNS0_7SessionE
T _ZN6Genode5Child13revoke_serverEPKNS_6ServerE
T _ZN6Genode5Child13yield_requestEv
T _ZN6Genode5Child14Initial_thread5startEm
T _ZN6Genode5Child14Initial_threadC1ERNS_11Cpu_sessionENS_10CapabilityINS_10Pd_sessionEEERKNS_6StringILj32EEE
T _ZN6Genode5Child14Initial_threadC2ERNS_11Cpu_sessionENS_10CapabilityINS_10Pd_sessionEEERKNS_6StringILj32EEE
T _ZN6Genode5Child14Initial_threadD1Ev
T _ZN6Genode5Child14Initial_threadD2Ev
T _ZN6Genode5Child14yield_responseEv
T _ZN6Genode5Child15_parent_serviceEv
T _ZN6Genode5Child15_remove_sessionEPNS0_7SessionE
T _ZN6Genode5Child16resource_requestERKNS_6StringILj160EEE
T _ZN6Genode5Child19resource_avail_sighENS_10CapabilityINS_14Signal_contextEEE
T _ZN6Genode5Child4exitEi
T _ZN6Genode5Child5closeENS_10CapabilityINS_7SessionEEE
T _ZN6Genode5Child5yieldERKNS_6StringILj160EEE
T _ZN6Genode5Child6_closeEPNS0_7SessionE
T _ZN6Genode5Child7Process17Loaded_executableC1ENS_10CapabilityINS_9DataspaceEEES5_RNS_11Ram_sessionERNS_10Region_mapES9_NS3_INS_6ParentEEE
T _ZN6Genode5Child7Process17Loaded_executableC2ENS_10CapabilityINS_9DataspaceEEES5_RNS_11Ram_sessionERNS_10Region_mapES9_NS3_INS_6ParentEEE
T _ZN6Genode5Child7ProcessC1ENS_10CapabilityINS_9DataspaceEEES4_NS2_INS_10Pd_sessionEEERS5_RNS_11Ram_sessionERNS0_19Initial_thread_baseERNS_10Region_mapESD_NS2_INS_6ParentEEE
T _ZN6Genode5Child7ProcessC2ENS_10CapabilityINS_9DataspaceEEES4_NS2_INS_10Pd_sessionEEERS5_RNS_11Ram_sessionERNS0_19Initial_thread_baseERNS_10Region_mapESD_NS2_INS_6ParentEEE
T _ZN6Genode5Child7ProcessD1Ev
T _ZN6Genode5Child7ProcessD2Ev
T _ZN6Genode5Child7sessionERKNS_13Rpc_in_bufferILj64EEERKNS1_ILj160EEERKNS_8AffinityE
T _ZN6Genode5Child7upgradeENS_10CapabilityINS_7SessionEEERKNS_13Rpc_in_bufferILj160EEE
T _ZN6Genode5Child8announceERKNS_13Rpc_in_bufferILj64EEENS_10CapabilityINS_4RootEEE
T _ZN6Genode5ChildC1ENS_10CapabilityINS_9DataspaceEEES3_NS1_INS_10Pd_sessionEEERS4_NS1_INS_11Ram_sessionEEERS7_NS1_INS_11Cpu_sessionEEERNS0_19Initial_thread_baseERNS_10Region_mapESF_RNS_14Rpc_entrypointERNS_12Child_policyERNS_7ServiceESL_SL_
T _ZN6Genode5ChildC2ENS_10CapabilityINS_9DataspaceEEES3_NS1_INS_10Pd_sessionEEERS4_NS1_INS_11Ram_sessionEEERS7_NS1_INS_11Cpu_sessionEEERNS0_19Initial_thread_baseERNS_10Region_mapESF_RNS_14Rpc_entrypointERNS_12Child_policyERNS_7ServiceESL_SL_
T _ZN6Genode5ChildD0Ev
T _ZN6Genode5ChildD1Ev
T _ZN6Genode5ChildD2Ev
T _ZN6Genode5printERNS_6OutputEl
T _ZN6Genode5printERNS_6OutputEm
T _ZN6Genode5printERNS_6OutputEPKc
T _ZN6Genode5printERNS_6OutputEPKv
T _ZN6Genode5printERNS_6OutputERKNS_3HexE
T _ZN6Genode5printERNS_6OutputEx
T _ZN6Genode5Stack4sizeEj
T _ZN6Genode5Trace6Logger17_evaluate_controlEv
T _ZN6Genode5Trace6Logger3logEPKcj
T _ZN6Genode5Trace6Logger4initENS_10CapabilityINS_10Cpu_threadEEEPNS_11Cpu_sessionEPNS0_7ControlE
T _ZN6Genode5Trace6LoggerC1Ev
T _ZN6Genode5Trace6LoggerC2Ev
T _ZN6Genode6Config4sighENS_10CapabilityINS_14Signal_contextEEE
T _ZN6Genode6Config6reloadEv
T _ZN6Genode6Config8xml_nodeEv
T _ZN6Genode6ConfigC1Ev
T _ZN6Genode6ConfigC2Ev
T _ZN6Genode6configEv
T _ZN6Genode6Output10out_stringEPKcj
T _ZN6Genode6printfEPKcz
T _ZN6Genode6Signal19_dec_ref_and_unlockEv
T _ZN6Genode6Signal8_inc_refEv
T _ZN6Genode6SignalaSERKS0_
T _ZN6Genode6SignalC1ENS0_4DataE
T _ZN6Genode6SignalC1ERKS0_
T _ZN6Genode6SignalC2ENS0_4DataE
T _ZN6Genode6SignalC2ERKS0_
T _ZN6Genode6SignalD1Ev
T _ZN6Genode6SignalD2Ev
T _ZN6Genode6Thread10stack_sizeEj
T _ZN6Genode6Thread11_free_stackEPNS_5StackE
T _ZN6Genode6Thread12_alloc_stackEjPKcb
T _ZN6Genode6Thread13native_threadEv
T _ZN6Genode6Thread13_thread_startEv
T _ZN6Genode6Thread15cancel_blockingEv
T _ZN6Genode6Thread18stack_virtual_sizeEv
T _ZN6Genode6Thread20free_secondary_stackEPv
T _ZN6Genode6Thread21alloc_secondary_stackEPKcj
T _ZN6Genode6Thread21_init_platform_threadEjNS0_4TypeE
T _ZN6Genode6Thread23_deinit_platform_threadEv
T _ZN6Genode6Thread23stack_area_virtual_baseEv
T _ZN6Genode6Thread23stack_area_virtual_sizeEv
T _ZN6Genode6Thread4joinEv
T _ZN6Genode6Thread4nameEPcj
T _ZN6Genode6Thread5startEv
T _ZN6Genode6Thread6myselfEv
T _ZN6Genode6Thread7_loggerEv
T _ZN6Genode6ThreadC1EjPKcjNS0_4TypeENS_8Affinity8LocationE
T _ZN6Genode6ThreadC1EjPKcjNS0_4TypeEPNS_11Cpu_sessionENS_8Affinity8LocationE
T _ZN6Genode6ThreadC1ERNS_3EnvERKNS_6StringILj32EEEj
T _ZN6Genode6ThreadC1ERNS_3EnvERKNS_6StringILj32EEEjNS_8Affinity8LocationENS_11Cpu_session6WeightERS9_
T _ZN6Genode6ThreadC2EjPKcjNS0_4TypeENS_8Affinity8LocationE
T _ZN6Genode6ThreadC2EjPKcjNS0_4TypeEPNS_11Cpu_sessionENS_8Affinity8LocationE
T _ZN6Genode6ThreadC2ERNS_3EnvERKNS_6StringILj32EEEj
T _ZN6Genode6ThreadC2ERNS_3EnvERKNS_6StringILj32EEEjNS_8Affinity8LocationENS_11Cpu_session6WeightERS9_
T _ZN6Genode6ThreadD0Ev
T _ZN6Genode6ThreadD1Ev
T _ZN6Genode6ThreadD2Ev
T _ZN6Genode7Console11_out_stringEPKc
T _ZN6Genode7Console6printfEPKcz
T _ZN6Genode7Console7vprintfEPKcPc
T _ZN6Genode7vprintfEPKcPc
T _ZN6Genode8init_logEv
T _ZN6Genode8ipc_callENS_21Native_capability_tplINS_14Cap_dst_policyEEERNS_11Msgbuf_baseES4_j
T _ZN6Genode9ipc_replyENS_21Native_capability_tplINS_14Cap_dst_policyEEENS_18Rpc_exception_codeERNS_11Msgbuf_baseE
T _ZnajPN6Genode9AllocatorE
T _ZnajRN6Genode9AllocatorE
T _ZNK6Genode11Sliced_heap8overheadEj
T _ZNK6Genode13Shared_object7_lookupEPKc
T _ZNK6Genode13Shared_object8link_mapEv
T _ZNK6Genode14Rpc_entrypoint9is_myselfEv
T _ZNK6Genode18Allocator_avl_base10valid_addrEm
T _ZNK6Genode18Allocator_avl_base5availEv
T _ZNK6Genode18Allocator_avl_base7size_atEPKv
T _ZNK6Genode4Slab8consumedEv
T _ZNK6Genode5Child15main_thread_capEv
T _ZNK6Genode5Child21notify_resource_availEv
T _ZNK6Genode6Thread10stack_baseEv
T _ZNK6Genode6Thread4nameEv
T _ZNK6Genode6Thread9stack_topEv
T _ZNKSt13bad_exception4whatEv
T _ZNKSt9exception4whatEv
T _ZNSt13bad_exceptionD0Ev
T _ZNSt13bad_exceptionD1Ev
T _ZNSt13bad_exceptionD2Ev
T _ZNSt9exceptionD0Ev
T _ZNSt9exceptionD1Ev
T _ZNSt9exceptionD2Ev
T _ZnwjPN6Genode9AllocatorE
T _ZnwjRN6Genode9AllocatorE
T _ZSt18uncaught_exceptionv
T _ZSt9terminatev
V _ZN6Genode24call_component_constructE
V _ZTI11Log_console
V _ZTI11Main_thread
V _ZTI21Signal_handler_thread
V _ZTI22Failed_to_load_program
V _ZTIa
V _ZTIb
V _ZTIc
V _ZTId
V _ZTIDd
V _ZTIDe
V _ZTIDf
V _ZTIDi
V _ZTIDn
V _ZTIDs
V _ZTIe
V _ZTIf
V _ZTIh
V _ZTIi
V _ZTIj
V _ZTIl
V _ZTIm
V _ZTIN10__cxxabiv115__forced_unwindE
V _ZTIN10__cxxabiv116__enum_type_infoE
V _ZTIN10__cxxabiv117__class_type_infoE
V _ZTIN10__cxxabiv117__pbase_type_infoE
V _ZTIN10__cxxabiv119__foreign_exceptionE
V _ZTIN10__cxxabiv119__pointer_type_infoE
V _ZTIN10__cxxabiv120__function_type_infoE
V _ZTIN10__cxxabiv120__si_class_type_infoE
V _ZTIN10__cxxabiv121__vmi_class_type_infoE
V _ZTIN10__cxxabiv123__fundamental_type_infoE
V _ZTIN5Timer10ConnectionE
V _ZTIN5Timer14Session_clientE
V _ZTIN5Timer7SessionE
V _ZTIN6Genode10CapabilityIN5Timer7SessionEEE
V _ZTIN6Genode10CapabilityINS_10Cpu_threadEEE
V _ZTIN6Genode10CapabilityINS_10Pd_sessionEEE
V _ZTIN6Genode10CapabilityINS_10Region_mapEEE
V _ZTIN6Genode10CapabilityINS_10Rm_sessionEEE
V _ZTIN6Genode10CapabilityINS_11Cpu_sessionEEE
V _ZTIN6Genode10CapabilityINS_11Log_sessionEEE
V _ZTIN6Genode10CapabilityINS_11Ram_sessionEEE
V _ZTIN6Genode10CapabilityINS_11Rom_sessionEEE
V _ZTIN6Genode10CapabilityINS_13Signal_sourceEEE
V _ZTIN6Genode10CapabilityINS_14Signal_contextEEE
V _ZTIN6Genode10CapabilityINS_15Linux_dataspaceEEE
V _ZTIN6Genode10CapabilityINS_16Linux_native_cpuEEE
V _ZTIN6Genode10CapabilityINS_6ParentEEE
V _ZTIN6Genode10CapabilityINS_9DataspaceEEE
V _ZTIN6Genode10ConnectionIN5Timer7SessionEEE
V _ZTIN6Genode10ConnectionINS_11Log_sessionEEE
V _ZTIN6Genode10ConnectionINS_11Rom_sessionEEE
V _ZTIN6Genode10Cpu_thread19State_access_failedE
V _ZTIN6Genode10Cpu_threadE
V _ZTIN6Genode10Entrypoint12Signal_proxyE
V _ZTIN6Genode10Entrypoint19Signal_proxy_threadE
V _ZTIN6Genode10Entrypoint22Signal_proxy_componentE
V _ZTIN6Genode10Pd_session15Out_of_metadataE
V _ZTIN6Genode10Pd_session21Invalid_signal_sourceE
V _ZTIN6Genode10Pd_sessionE
V _ZTIN6Genode10Region_map13Attach_failedE
V _ZTIN6Genode10Region_map15Out_of_metadataE
V _ZTIN6Genode10Region_map15Region_conflictE
V _ZTIN6Genode10Region_map17Invalid_dataspaceE
V _ZTIN6Genode10Region_mapE
V _ZTIN6Genode10Rm_sessionE
V _ZTIN6Genode10Rpc_clientIN5Timer7SessionEEE
V _ZTIN6Genode10Rpc_clientINS_10Cpu_threadEEE
V _ZTIN6Genode10Rpc_clientINS_10Pd_sessionEEE
V _ZTIN6Genode10Rpc_clientINS_10Region_mapEEE
V _ZTIN6Genode10Rpc_clientINS_10Rm_sessionEEE
V _ZTIN6Genode10Rpc_clientINS_11Cpu_sessionEEE
V _ZTIN6Genode10Rpc_clientINS_11Log_sessionEEE
V _ZTIN6Genode10Rpc_clientINS_11Ram_sessionEEE
V _ZTIN6Genode10Rpc_clientINS_11Rom_sessionEEE
V _ZTIN6Genode10Rpc_clientINS_13Signal_sourceEEE
V _ZTIN6Genode10Rpc_clientINS_15Linux_dataspaceEEE
V _ZTIN6Genode10Rpc_clientINS_16Linux_native_cpuEEE
V _ZTIN6Genode10Rpc_clientINS_6ParentEEE
V _ZTIN6Genode10Rpc_clientINS_9DataspaceEEE
V _ZTIN6Genode10Rpc_objectINS_10Entrypoint12Signal_proxyENS1_22Signal_proxy_componentEEE
V _ZTIN6Genode10Rpc_objectINS_14Rpc_entrypoint4ExitENS1_12Exit_handlerEEE
V _ZTIN6Genode10Rpc_objectINS_6ParentES1_EE
V _ZTIN6Genode11Cpu_session10Native_cpuE
V _ZTIN6Genode11Cpu_session15Out_of_metadataE
V _ZTIN6Genode11Cpu_session22Thread_creation_failedE
V _ZTIN6Genode11Cpu_sessionE
V _ZTIN6Genode11DeallocatorE
V _ZTIN6Genode11Log_sessionE
V _ZTIN6Genode11Msgbuf_base13Too_many_capsE
V _ZTIN6Genode11NoncopyableE
V _ZTIN6Genode11Object_poolINS_15Rpc_object_baseEE5EntryE
V _ZTIN6Genode11Object_poolINS_15Rpc_object_baseEEE
V _ZTIN6Genode11Object_poolINS_5Child7SessionEE5EntryE
V _ZTIN6Genode11Ram_session12Alloc_failedE
V _ZTIN6Genode11Ram_session14Quota_exceededE
V _ZTIN6Genode11Ram_session15Out_of_metadataE
V _ZTIN6Genode11Ram_sessionE
V _ZTIN6Genode11Rom_sessionE
V _ZTIN6Genode11Sliced_heapE
V _ZTIN6Genode12Address_info15Invalid_addressE
V _ZTIN6Genode12Local_parentE
V _ZTIN6Genode12Platform_envE
V _ZTIN6Genode13Avl_node_base6PolicyE
V _ZTIN6Genode13Avl_node_baseE
V _ZTIN6Genode13Bit_allocatorILj256EE14Out_of_indicesE
V _ZTIN6Genode13Parent_clientE
V _ZTIN6Genode13Shared_object12Invalid_fileE
V _ZTIN6Genode13Shared_object14Invalid_symbolE
V _ZTIN6Genode13Signal_sourceE
V _ZTIN6Genode13Xml_attribute14Invalid_syntaxE
V _ZTIN6Genode13Xml_attribute21Nonexistent_attributeE
V _ZTIN6Genode14Bit_array_base11Invalid_setE
V _ZTIN6Genode14Bit_array_base13Invalid_clearE
V _ZTIN6Genode14Bit_array_base17Invalid_bit_countE
V _ZTIN6Genode14Bit_array_base20Invalid_index_accessE
V _ZTIN6Genode14Env_deprecatedE
V _ZTIN6Genode14Log_connectionE
V _ZTIN6Genode14Parent_serviceE
V _ZTIN6Genode14Rom_connection21Rom_connection_failedE
V _ZTIN6Genode14Rom_connectionE
V _ZTIN6Genode14Rpc_dispatcherINS_10Entrypoint12Signal_proxyENS1_22Signal_proxy_componentEEE
V _ZTIN6Genode14Rpc_dispatcherINS_14Rpc_entrypoint4ExitENS1_12Exit_handlerEEE
V _ZTIN6Genode14Rpc_dispatcherINS_6ParentES1_EE
V _ZTIN6Genode14Rpc_entrypoint12Exit_handlerE
V _ZTIN6Genode14Rpc_entrypoint4ExitE
V _ZTIN6Genode14Rpc_entrypointE
V _ZTIN6Genode14Signal_contextE
V _ZTIN6Genode14Signal_handlerINS_10EntrypointES1_EE
V _ZTIN6Genode14String_consoleE
V _ZTIN6Genode14Timeout_threadE
V _ZTIN6Genode15Alarm_schedulerE
V _ZTIN6Genode15Cancelable_lockE
V _ZTIN6Genode15Linux_dataspaceE
V _ZTIN6Genode15Range_allocatorE
V _ZTIN6Genode15Region_map_mmapE
V _ZTIN6Genode15Rpc_object_baseE
V _ZTIN6Genode15Signal_receiver18Signal_not_pendingE
V _ZTIN6Genode15Signal_receiver22Context_already_in_useE
V _ZTIN6Genode15Signal_receiver22Context_not_associatedE
V _ZTIN6Genode15Volatile_objectINS_14Rpc_entrypointEE26Deref_unconstructed_objectE
V _ZTIN6Genode15Volatile_objectINS_14Signal_handlerINS_10EntrypointES2_EEE26Deref_unconstructed_objectE
V _ZTIN6Genode15Volatile_objectINS_15Signal_receiverEE26Deref_unconstructed_objectE
V _ZTIN6Genode15Volatile_objectINS_17Allocator_avl_tplINS_5EmptyELj4064EEEE26Deref_unconstructed_objectE
V _ZTIN6Genode15Volatile_objectINS_18Attached_dataspaceEE26Deref_unconstructed_objectE
V _ZTIN6Genode15Volatile_objectINS_20Signal_source_clientEE26Deref_unconstructed_objectE
V _ZTIN6Genode16Dataspace_clientE
V _ZTIN6Genode16Linux_native_cpuE
V _ZTIN6Genode16Local_pd_sessionE
V _ZTIN6Genode16Local_rm_sessionE
V _ZTIN6Genode16Weak_object_base14In_destructionE
V _ZTIN6Genode17Allocator_avl_tplINS_5EmptyELj4064EEE
V _ZTIN6Genode17Blocking_canceledE
V _ZTIN6Genode17Cpu_thread_clientE
V _ZTIN6Genode17Pd_session_clientE
V _ZTIN6Genode17Platform_env_baseE
V _ZTIN6Genode17Region_map_clientE
V _ZTIN6Genode17Rm_session_clientE
V _ZTIN6Genode17Thread_deprecatedILj4096EEE
V _ZTIN6Genode17Thread_deprecatedILj65536EEE
V _ZTIN6Genode18Allocator_avl_baseE
V _ZTIN6Genode18Attached_dataspace17Invalid_dataspaceE
V _ZTIN6Genode18Cpu_session_clientE
V _ZTIN6Genode18Log_session_clientE
V _ZTIN6Genode18Ram_session_clientE
V _ZTIN6Genode18Rom_session_clientE
V _ZTIN6Genode18Upgradeable_clientINS_18Cpu_session_clientEEE
V _ZTIN6Genode18Upgradeable_clientINS_18Ram_session_clientEEE
V _ZTIN6Genode20Signal_source_clientE
V _ZTIN6Genode21Native_capability_tplINS_14Cap_dst_policyEEE
V _ZTIN6Genode22Linux_dataspace_clientE
V _ZTIN6Genode22Signal_dispatcher_baseE
V _ZTIN6Genode23Expanding_parent_client21Emergency_ram_reserveE
V _ZTIN6Genode23Expanding_parent_clientE
V _ZTIN6Genode23Linux_native_cpu_clientE
V _ZTIN6Genode26Socket_descriptor_registryILj100EE13Limit_reachedE
V _ZTIN6Genode28Expanding_cpu_session_clientE
V _ZTIN6Genode28Expanding_ram_session_clientE
V _ZTIN6Genode3EnvE
V _ZTIN6Genode4FifoIN6Linker10DependencyEE7ElementE
V _ZTIN6Genode4FifoIN6Linker10Elf_objectEE7ElementE
V _ZTIN6Genode4FifoIN6Linker6ObjectEE7ElementE
V _ZTIN6Genode4HeapE
V _ZTIN6Genode4ListIN6Linker6ObjectEE7ElementE
V _ZTIN6Genode4ListINS_5Child7SessionEE7ElementE
V _ZTIN6Genode4ListINS_7ServiceEE7ElementE
V _ZTIN6Genode4LockE
V _ZTIN6Genode4SlabE
V _ZTIN6Genode5AlarmE
V _ZTIN6Genode5Child14Initial_threadE
V _ZTIN6Genode5Child19Initial_thread_baseE
V _ZTIN6Genode5Child22Process_startup_failedE
V _ZTIN6Genode5Child7Process18Invalid_executableE
V _ZTIN6Genode5Child7Process22Missing_dynamic_linkerE
V _ZTIN6Genode5Child7SessionE
V _ZTIN6Genode5ChildE
V _ZTIN6Genode5TslabINS_17Allocator_avl_tplINS_5EmptyELj4064EE5BlockELj4064EEE
V _ZTIN6Genode6OutputE
V _ZTIN6Genode6Parent11UnavailableE
V _ZTIN6Genode6Parent14Quota_exceededE
V _ZTIN6Genode6Parent14Service_deniedE
V _ZTIN6Genode6Parent9ExceptionE
V _ZTIN6Genode6ParentE
V _ZTIN6Genode6Thread15Stack_too_largeE
V _ZTIN6Genode6Thread18Out_of_stack_spaceE
V _ZTIN6Genode6Thread18Stack_alloc_failedE
V _ZTIN6Genode6ThreadE
V _ZTIN6Genode7ConsoleE
V _ZTIN6Genode7Service11UnavailableE
V _ZTIN6Genode7Service12Invalid_argsE
V _ZTIN6Genode7Service14Quota_exceededE
V _ZTIN6Genode7ServiceE
V _ZTIN6Genode7SessionE
V _ZTIN6Genode8Avl_nodeINS_11Object_poolINS_15Rpc_object_baseEE5EntryEEE
V _ZTIN6Genode8Avl_nodeINS_11Object_poolINS_5Child7SessionEE5EntryEEE
V _ZTIN6Genode8Avl_treeINS_11Object_poolINS_15Rpc_object_baseEE5EntryEE6PolicyE
V _ZTIN6Genode8Avl_treeINS_11Object_poolINS_5Child7SessionEE5EntryEE6PolicyE
V _ZTIN6Genode8Avl_treeINS_18Allocator_avl_base5BlockEE6PolicyE
V _ZTIN6Genode9Allocator13Out_of_memoryE
V _ZTIN6Genode9AllocatorE
V _ZTIN6Genode9DataspaceE
V _ZTIN6Genode9ExceptionE
V _ZTIN6Genode9Ipc_errorE
V _ZTIN6Linker10DependencyE
V _ZTIN6Linker10Elf_objectE
V _ZTIN6Linker11Root_objectE
V _ZTIN6Linker12IncompatibleE
V _ZTIN6Linker12Invalid_fileE
V _ZTIN6Linker2LdE
V _ZTIN6Linker4FileE
V _ZTIN6Linker6BinaryE
V _ZTIN6Linker6ObjectE
V _ZTIN6Linker8Elf_fileE
V _ZTIN6Linker9Ld_vtableE
V _ZTIN6Linker9Not_foundE
V _ZTIPa
V _ZTIPb
V _ZTIPc
V _ZTIPd
V _ZTIPDd
V _ZTIPDe
V _ZTIPDf
V _ZTIPDi
V _ZTIPDn
V _ZTIPDs
V _ZTIPe
V _ZTIPf
V _ZTIPh
V _ZTIPi
V _ZTIPj
V _ZTIPKa
V _ZTIPKb
V _ZTIPKc
V _ZTIPKd
V _ZTIPKDd
V _ZTIPKDe
V _ZTIPKDf
V _ZTIPKDi
V _ZTIPKDn
V _ZTIPKDs
V _ZTIPKe
V _ZTIPKf
V _ZTIPKh
V _ZTIPKi
V _ZTIPKj
V _ZTIPKl
V _ZTIPKm
V _ZTIPKs
V _ZTIPKt
V _ZTIPKv
V _ZTIPKw
V _ZTIPKx
V _ZTIPKy
V _ZTIPl
V _ZTIPm
V _ZTIPs
V _ZTIPt
V _ZTIPv
V _ZTIPw
V _ZTIPx
V _ZTIPy
V _ZTIs
V _ZTISt10bad_typeid
V _ZTISt13bad_exception
V _ZTISt16bad_array_length
V _ZTISt20bad_array_new_length
V _ZTISt8bad_cast
V _ZTISt9bad_alloc
V _ZTISt9exception
V _ZTISt9type_info
V _ZTIt
V _ZTIv
V _ZTIw
V _ZTIx
V _ZTIy
V _ZTS11Log_console
V _ZTS11Main_thread
V _ZTS21Signal_handler_thread
V _ZTS22Failed_to_load_program
V _ZTSa
V _ZTSb
V _ZTSc
V _ZTSd
V _ZTSDd
V _ZTSDe
V _ZTSDf
V _ZTSDi
V _ZTSDn
V _ZTSDs
V _ZTSe
V _ZTSf
V _ZTSh
V _ZTSi
V _ZTSj
V _ZTSl
V _ZTSm
V _ZTSN10__cxxabiv115__forced_unwindE
V _ZTSN10__cxxabiv116__enum_type_infoE
V _ZTSN10__cxxabiv117__class_type_infoE
V _ZTSN10__cxxabiv117__pbase_type_infoE
V _ZTSN10__cxxabiv119__foreign_exceptionE
V _ZTSN10__cxxabiv119__pointer_type_infoE
V _ZTSN10__cxxabiv120__function_type_infoE
V _ZTSN10__cxxabiv120__si_class_type_infoE
V _ZTSN10__cxxabiv121__vmi_class_type_infoE
V _ZTSN10__cxxabiv123__fundamental_type_infoE
V _ZTSN5Timer10ConnectionE
V _ZTSN5Timer14Session_clientE
V _ZTSN5Timer7SessionE
V _ZTSN6Genode10CapabilityIN5Timer7SessionEEE
V _ZTSN6Genode10CapabilityINS_10Cpu_threadEEE
V _ZTSN6Genode10CapabilityINS_10Pd_sessionEEE
V _ZTSN6Genode10CapabilityINS_10Region_mapEEE
V _ZTSN6Genode10CapabilityINS_10Rm_sessionEEE
V _ZTSN6Genode10CapabilityINS_11Cpu_sessionEEE
V _ZTSN6Genode10CapabilityINS_11Log_sessionEEE
V _ZTSN6Genode10CapabilityINS_11Ram_sessionEEE
V _ZTSN6Genode10CapabilityINS_11Rom_sessionEEE
V _ZTSN6Genode10CapabilityINS_13Signal_sourceEEE
V _ZTSN6Genode10CapabilityINS_14Signal_contextEEE
V _ZTSN6Genode10CapabilityINS_15Linux_dataspaceEEE
V _ZTSN6Genode10CapabilityINS_16Linux_native_cpuEEE
V _ZTSN6Genode10CapabilityINS_6ParentEEE
V _ZTSN6Genode10CapabilityINS_9DataspaceEEE
V _ZTSN6Genode10ConnectionIN5Timer7SessionEEE
V _ZTSN6Genode10ConnectionINS_11Log_sessionEEE
V _ZTSN6Genode10ConnectionINS_11Rom_sessionEEE
V _ZTSN6Genode10Cpu_thread19State_access_failedE
V _ZTSN6Genode10Cpu_threadE
V _ZTSN6Genode10Entrypoint12Signal_proxyE
V _ZTSN6Genode10Entrypoint19Signal_proxy_threadE
V _ZTSN6Genode10Entrypoint22Signal_proxy_componentE
V _ZTSN6Genode10Pd_session15Out_of_metadataE
V _ZTSN6Genode10Pd_session21Invalid_signal_sourceE
V _ZTSN6Genode10Pd_sessionE
V _ZTSN6Genode10Region_map13Attach_failedE
V _ZTSN6Genode10Region_map15Out_of_metadataE
V _ZTSN6Genode10Region_map15Region_conflictE
V _ZTSN6Genode10Region_map17Invalid_dataspaceE
V _ZTSN6Genode10Region_mapE
V _ZTSN6Genode10Rm_sessionE
V _ZTSN6Genode10Rpc_clientIN5Timer7SessionEEE
V _ZTSN6Genode10Rpc_clientINS_10Cpu_threadEEE
V _ZTSN6Genode10Rpc_clientINS_10Pd_sessionEEE
V _ZTSN6Genode10Rpc_clientINS_10Region_mapEEE
V _ZTSN6Genode10Rpc_clientINS_10Rm_sessionEEE
V _ZTSN6Genode10Rpc_clientINS_11Cpu_sessionEEE
V _ZTSN6Genode10Rpc_clientINS_11Log_sessionEEE
V _ZTSN6Genode10Rpc_clientINS_11Ram_sessionEEE
V _ZTSN6Genode10Rpc_clientINS_11Rom_sessionEEE
V _ZTSN6Genode10Rpc_clientINS_13Signal_sourceEEE
V _ZTSN6Genode10Rpc_clientINS_15Linux_dataspaceEEE
V _ZTSN6Genode10Rpc_clientINS_16Linux_native_cpuEEE
V _ZTSN6Genode10Rpc_clientINS_6ParentEEE
V _ZTSN6Genode10Rpc_clientINS_9DataspaceEEE
V _ZTSN6Genode10Rpc_objectINS_10Entrypoint12Signal_proxyENS1_22Signal_proxy_componentEEE
V _ZTSN6Genode10Rpc_objectINS_14Rpc_entrypoint4ExitENS1_12Exit_handlerEEE
V _ZTSN6Genode10Rpc_objectINS_6ParentES1_EE
V _ZTSN6Genode11Cpu_session10Native_cpuE
V _ZTSN6Genode11Cpu_session15Out_of_metadataE
V _ZTSN6Genode11Cpu_session22Thread_creation_failedE
V _ZTSN6Genode11Cpu_sessionE
V _ZTSN6Genode11DeallocatorE
V _ZTSN6Genode11Log_sessionE
V _ZTSN6Genode11Msgbuf_base13Too_many_capsE
V _ZTSN6Genode11NoncopyableE
V _ZTSN6Genode11Object_poolINS_15Rpc_object_baseEE5EntryE
V _ZTSN6Genode11Object_poolINS_15Rpc_object_baseEEE
V _ZTSN6Genode11Object_poolINS_5Child7SessionEE5EntryE
V _ZTSN6Genode11Ram_session12Alloc_failedE
V _ZTSN6Genode11Ram_session14Quota_exceededE
V _ZTSN6Genode11Ram_session15Out_of_metadataE
V _ZTSN6Genode11Ram_sessionE
V _ZTSN6Genode11Rom_sessionE
V _ZTSN6Genode11Sliced_heapE
V _ZTSN6Genode12Address_info15Invalid_addressE
V _ZTSN6Genode12Local_parentE
V _ZTSN6Genode12Platform_envE
V _ZTSN6Genode13Avl_node_base6PolicyE
V _ZTSN6Genode13Avl_node_baseE
V _ZTSN6Genode13Bit_allocatorILj256EE14Out_of_indicesE
V _ZTSN6Genode13Parent_clientE
V _ZTSN6Genode13Shared_object12Invalid_fileE
V _ZTSN6Genode13Shared_object14Invalid_symbolE
V _ZTSN6Genode13Signal_sourceE
V _ZTSN6Genode13Xml_attribute14Invalid_syntaxE
V _ZTSN6Genode13Xml_attribute21Nonexistent_attributeE
V _ZTSN6Genode14Bit_array_base11Invalid_setE
V _ZTSN6Genode14Bit_array_base13Invalid_clearE
V _ZTSN6Genode14Bit_array_base17Invalid_bit_countE
V _ZTSN6Genode14Bit_array_base20Invalid_index_accessE
V _ZTSN6Genode14Env_deprecatedE
V _ZTSN6Genode14Log_connectionE
V _ZTSN6Genode14Parent_serviceE
V _ZTSN6Genode14Rom_connection21Rom_connection_failedE
V _ZTSN6Genode14Rom_connectionE
V _ZTSN6Genode14Rpc_dispatcherINS_10Entrypoint12Signal_proxyENS1_22Signal_proxy_componentEEE
V _ZTSN6Genode14Rpc_dispatcherINS_14Rpc_entrypoint4ExitENS1_12Exit_handlerEEE
V _ZTSN6Genode14Rpc_dispatcherINS_6ParentES1_EE
V _ZTSN6Genode14Rpc_entrypoint12Exit_handlerE
V _ZTSN6Genode14Rpc_entrypoint4ExitE
V _ZTSN6Genode14Rpc_entrypointE
V _ZTSN6Genode14Signal_contextE
V _ZTSN6Genode14Signal_handlerINS_10EntrypointES1_EE
V _ZTSN6Genode14String_consoleE
V _ZTSN6Genode14Timeout_threadE
V _ZTSN6Genode15Alarm_schedulerE
V _ZTSN6Genode15Cancelable_lockE
V _ZTSN6Genode15Linux_dataspaceE
V _ZTSN6Genode15Range_allocatorE
V _ZTSN6Genode15Region_map_mmapE
V _ZTSN6Genode15Rpc_object_baseE
V _ZTSN6Genode15Signal_receiver18Signal_not_pendingE
V _ZTSN6Genode15Signal_receiver22Context_already_in_useE
V _ZTSN6Genode15Signal_receiver22Context_not_associatedE
V _ZTSN6Genode15Volatile_objectINS_14Rpc_entrypointEE26Deref_unconstructed_objectE
V _ZTSN6Genode15Volatile_objectINS_14Signal_handlerINS_10EntrypointES2_EEE26Deref_unconstructed_objectE
V _ZTSN6Genode15Volatile_objectINS_15Signal_receiverEE26Deref_unconstructed_objectE
V _ZTSN6Genode15Volatile_objectINS_17Allocator_avl_tplINS_5EmptyELj4064EEEE26Deref_unconstructed_objectE
V _ZTSN6Genode15Volatile_objectINS_18Attached_dataspaceEE26Deref_unconstructed_objectE
V _ZTSN6Genode15Volatile_objectINS_20Signal_source_clientEE26Deref_unconstructed_objectE
V _ZTSN6Genode16Dataspace_clientE
V _ZTSN6Genode16Linux_native_cpuE
V _ZTSN6Genode16Local_pd_sessionE
V _ZTSN6Genode16Local_rm_sessionE
V _ZTSN6Genode16Weak_object_base14In_destructionE
V _ZTSN6Genode17Allocator_avl_tplINS_5EmptyELj4064EEE
V _ZTSN6Genode17Blocking_canceledE
V _ZTSN6Genode17Cpu_thread_clientE
V _ZTSN6Genode17Pd_session_clientE
V _ZTSN6Genode17Platform_env_baseE
V _ZTSN6Genode17Region_map_clientE
V _ZTSN6Genode17Rm_session_clientE
V _ZTSN6Genode17Thread_deprecatedILj4096EEE
V _ZTSN6Genode17Thread_deprecatedILj65536EEE
V _ZTSN6Genode18Allocator_avl_baseE
V _ZTSN6Genode18Attached_dataspace17Invalid_dataspaceE
V _ZTSN6Genode18Cpu_session_clientE
V _ZTSN6Genode18Log_session_clientE
V _ZTSN6Genode18Ram_session_clientE
V _ZTSN6Genode18Rom_session_clientE
V _ZTSN6Genode18Upgradeable_clientINS_18Cpu_session_clientEEE
V _ZTSN6Genode18Upgradeable_clientINS_18Ram_session_clientEEE
V _ZTSN6Genode20Signal_source_clientE
V _ZTSN6Genode21Native_capability_tplINS_14Cap_dst_policyEEE
V _ZTSN6Genode22Linux_dataspace_clientE
V _ZTSN6Genode22Signal_dispatcher_baseE
V _ZTSN6Genode23Expanding_parent_client21Emergency_ram_reserveE
V _ZTSN6Genode23Expanding_parent_clientE
V _ZTSN6Genode23Linux_native_cpu_clientE
V _ZTSN6Genode26Socket_descriptor_registryILj100EE13Limit_reachedE
V _ZTSN6Genode28Expanding_cpu_session_clientE
V _ZTSN6Genode28Expanding_ram_session_clientE
V _ZTSN6Genode3EnvE
V _ZTSN6Genode4FifoIN6Linker10DependencyEE7ElementE
V _ZTSN6Genode4FifoIN6Linker10Elf_objectEE7ElementE
V _ZTSN6Genode4FifoIN6Linker6ObjectEE7ElementE
V _ZTSN6Genode4HeapE
V _ZTSN6Genode4ListIN6Linker6ObjectEE7ElementE
V _ZTSN6Genode4ListINS_5Child7SessionEE7ElementE
V _ZTSN6Genode4ListINS_7ServiceEE7ElementE
V _ZTSN6Genode4LockE
V _ZTSN6Genode4SlabE
V _ZTSN6Genode5AlarmE
V _ZTSN6Genode5Child14Initial_threadE
V _ZTSN6Genode5Child19Initial_thread_baseE
V _ZTSN6Genode5Child22Process_startup_failedE
V _ZTSN6Genode5Child7Process18Invalid_executableE
V _ZTSN6Genode5Child7Process22Missing_dynamic_linkerE
V _ZTSN6Genode5Child7SessionE
V _ZTSN6Genode5ChildE
V _ZTSN6Genode5TslabINS_17Allocator_avl_tplINS_5EmptyELj4064EE5BlockELj4064EEE
V _ZTSN6Genode6OutputE
V _ZTSN6Genode6Parent11UnavailableE
V _ZTSN6Genode6Parent14Quota_exceededE
V _ZTSN6Genode6Parent14Service_deniedE
V _ZTSN6Genode6Parent9ExceptionE
V _ZTSN6Genode6ParentE
V _ZTSN6Genode6Thread15Stack_too_largeE
V _ZTSN6Genode6Thread18Out_of_stack_spaceE
V _ZTSN6Genode6Thread18Stack_alloc_failedE
V _ZTSN6Genode6ThreadE
V _ZTSN6Genode7ConsoleE
V _ZTSN6Genode7Service11UnavailableE
V _ZTSN6Genode7Service12Invalid_argsE
V _ZTSN6Genode7Service14Quota_exceededE
V _ZTSN6Genode7ServiceE
V _ZTSN6Genode7SessionE
V _ZTSN6Genode8Avl_nodeINS_11Object_poolINS_15Rpc_object_baseEE5EntryEEE
V _ZTSN6Genode8Avl_nodeINS_11Object_poolINS_5Child7SessionEE5EntryEEE
V _ZTSN6Genode8Avl_treeINS_11Object_poolINS_15Rpc_object_baseEE5EntryEE6PolicyE
V _ZTSN6Genode8Avl_treeINS_11Object_poolINS_5Child7SessionEE5EntryEE6PolicyE
V _ZTSN6Genode8Avl_treeINS_18Allocator_avl_base5BlockEE6PolicyE
V _ZTSN6Genode9Allocator13Out_of_memoryE
V _ZTSN6Genode9AllocatorE
V _ZTSN6Genode9DataspaceE
V _ZTSN6Genode9ExceptionE
V _ZTSN6Genode9Ipc_errorE
V _ZTSN6Linker10DependencyE
V _ZTSN6Linker10Elf_objectE
V _ZTSN6Linker11Root_objectE
V _ZTSN6Linker12IncompatibleE
V _ZTSN6Linker12Invalid_fileE
V _ZTSN6Linker2LdE
V _ZTSN6Linker4FileE
V _ZTSN6Linker6BinaryE
V _ZTSN6Linker6ObjectE
V _ZTSN6Linker8Elf_fileE
V _ZTSN6Linker9Ld_vtableE
V _ZTSN6Linker9Not_foundE
V _ZTSPa
V _ZTSPb
V _ZTSPc
V _ZTSPd
V _ZTSPDd
V _ZTSPDe
V _ZTSPDf
V _ZTSPDi
V _ZTSPDn
V _ZTSPDs
V _ZTSPe
V _ZTSPf
V _ZTSPh
V _ZTSPi
V _ZTSPj
V _ZTSPKa
V _ZTSPKb
V _ZTSPKc
V _ZTSPKd
V _ZTSPKDd
V _ZTSPKDe
V _ZTSPKDf
V _ZTSPKDi
V _ZTSPKDn
V _ZTSPKDs
V _ZTSPKe
V _ZTSPKf
V _ZTSPKh
V _ZTSPKi
V _ZTSPKj
V _ZTSPKl
V _ZTSPKm
V _ZTSPKs
V _ZTSPKt
V _ZTSPKv
V _ZTSPKw
V _ZTSPKx
V _ZTSPKy
V _ZTSPl
V _ZTSPm
V _ZTSPs
V _ZTSPt
V _ZTSPv
V _ZTSPw
V _ZTSPx
V _ZTSPy
V _ZTSs
V _ZTSSt10bad_typeid
V _ZTSSt13bad_exception
V _ZTSSt16bad_array_length
V _ZTSSt20bad_array_new_length
V _ZTSSt8bad_cast
V _ZTSSt9bad_alloc
V _ZTSSt9exception
V _ZTSSt9type_info
V _ZTSt
V _ZTSv
V _ZTSw
V _ZTSx
V _ZTSy
V _ZTV11Log_console
V _ZTV11Main_thread
V _ZTV21Signal_handler_thread
V _ZTVN10__cxxabiv115__forced_unwindE
V _ZTVN10__cxxabiv116__enum_type_infoE
V _ZTVN10__cxxabiv117__class_type_infoE
V _ZTVN10__cxxabiv117__pbase_type_infoE
V _ZTVN10__cxxabiv119__foreign_exceptionE
V _ZTVN10__cxxabiv119__pointer_type_infoE
V _ZTVN10__cxxabiv120__function_type_infoE
V _ZTVN10__cxxabiv120__si_class_type_infoE
V _ZTVN10__cxxabiv121__vmi_class_type_infoE
V _ZTVN10__cxxabiv123__fundamental_type_infoE
V _ZTVN5Timer10ConnectionE
V _ZTVN5Timer14Session_clientE
V _ZTVN5Timer7SessionE
V _ZTVN6Genode10Cpu_threadE
V _ZTVN6Genode10Entrypoint19Signal_proxy_threadE
V _ZTVN6Genode10Entrypoint22Signal_proxy_componentE
V _ZTVN6Genode10Pd_sessionE
V _ZTVN6Genode10Region_mapE
V _ZTVN6Genode10Rm_sessionE
V _ZTVN6Genode10Rpc_clientIN5Timer7SessionEEE
V _ZTVN6Genode10Rpc_clientINS_10Cpu_threadEEE
V _ZTVN6Genode10Rpc_clientINS_10Pd_sessionEEE
V _ZTVN6Genode10Rpc_clientINS_10Region_mapEEE
V _ZTVN6Genode10Rpc_clientINS_10Rm_sessionEEE
V _ZTVN6Genode10Rpc_clientINS_11Cpu_sessionEEE
V _ZTVN6Genode10Rpc_clientINS_11Log_sessionEEE
V _ZTVN6Genode10Rpc_clientINS_11Ram_sessionEEE
V _ZTVN6Genode10Rpc_clientINS_11Rom_sessionEEE
V _ZTVN6Genode10Rpc_clientINS_13Signal_sourceEEE
V _ZTVN6Genode10Rpc_clientINS_15Linux_dataspaceEEE
V _ZTVN6Genode10Rpc_clientINS_16Linux_native_cpuEEE
V _ZTVN6Genode10Rpc_clientINS_6ParentEEE
V _ZTVN6Genode10Rpc_clientINS_9DataspaceEEE
V _ZTVN6Genode10Rpc_objectINS_10Entrypoint12Signal_proxyENS1_22Signal_proxy_componentEEE
V _ZTVN6Genode10Rpc_objectINS_14Rpc_entrypoint4ExitENS1_12Exit_handlerEEE
V _ZTVN6Genode10Rpc_objectINS_6ParentES1_EE
V _ZTVN6Genode11Cpu_sessionE
V _ZTVN6Genode11DeallocatorE
V _ZTVN6Genode11Log_sessionE
V _ZTVN6Genode11Object_poolINS_15Rpc_object_baseEE5EntryE
V _ZTVN6Genode11Object_poolINS_5Child7SessionEE5EntryE
V _ZTVN6Genode11Ram_sessionE
V _ZTVN6Genode11Rom_sessionE
V _ZTVN6Genode11Sliced_heapE
V _ZTVN6Genode12Local_parentE
V _ZTVN6Genode12Platform_envE
V _ZTVN6Genode13Avl_node_base6PolicyE
V _ZTVN6Genode13Parent_clientE
V _ZTVN6Genode13Signal_sourceE
V _ZTVN6Genode14Env_deprecatedE
V _ZTVN6Genode14Log_connectionE
V _ZTVN6Genode14Parent_serviceE
V _ZTVN6Genode14Rom_connectionE
V _ZTVN6Genode14Rpc_dispatcherINS_6ParentES1_EE
V _ZTVN6Genode14Rpc_entrypoint12Exit_handlerE
V _ZTVN6Genode14Rpc_entrypointE
V _ZTVN6Genode14Signal_contextE
V _ZTVN6Genode14Signal_handlerINS_10EntrypointES1_EE
V _ZTVN6Genode14String_consoleE
V _ZTVN6Genode14Timeout_threadE
V _ZTVN6Genode15Linux_dataspaceE
V _ZTVN6Genode15Range_allocatorE
V _ZTVN6Genode15Region_map_mmapE
V _ZTVN6Genode15Rpc_object_baseE
V _ZTVN6Genode16Dataspace_clientE
V _ZTVN6Genode16Linux_native_cpuE
V _ZTVN6Genode16Local_pd_sessionE
V _ZTVN6Genode16Local_rm_sessionE
V _ZTVN6Genode17Allocator_avl_tplINS_5EmptyELj4064EEE
V _ZTVN6Genode17Cpu_thread_clientE
V _ZTVN6Genode17Pd_session_clientE
V _ZTVN6Genode17Platform_env_baseE
V _ZTVN6Genode17Region_map_clientE
V _ZTVN6Genode17Rm_session_clientE
V _ZTVN6Genode17Thread_deprecatedILj4096EEE
V _ZTVN6Genode17Thread_deprecatedILj65536EEE
V _ZTVN6Genode18Allocator_avl_baseE
V _ZTVN6Genode18Cpu_session_clientE
V _ZTVN6Genode18Log_session_clientE
V _ZTVN6Genode18Ram_session_clientE
V _ZTVN6Genode18Rom_session_clientE
V _ZTVN6Genode18Upgradeable_clientINS_18Cpu_session_clientEEE
V _ZTVN6Genode18Upgradeable_clientINS_18Ram_session_clientEEE
V _ZTVN6Genode20Signal_source_clientE
V _ZTVN6Genode22Linux_dataspace_clientE
V _ZTVN6Genode22Signal_dispatcher_baseE
V _ZTVN6Genode23Expanding_parent_client21Emergency_ram_reserveE
V _ZTVN6Genode23Expanding_parent_clientE
V _ZTVN6Genode23Linux_native_cpu_clientE
V _ZTVN6Genode28Expanding_cpu_session_clientE
V _ZTVN6Genode28Expanding_ram_session_clientE
V _ZTVN6Genode3EnvE
V _ZTVN6Genode4HeapE
V _ZTVN6Genode4SlabE
V _ZTVN6Genode5AlarmE
V _ZTVN6Genode5Child14Initial_threadE
V _ZTVN6Genode5Child19Initial_thread_baseE
V _ZTVN6Genode5Child7SessionE
V _ZTVN6Genode5ChildE
V _ZTVN6Genode5TslabINS_17Allocator_avl_tplINS_5EmptyELj4064EE5BlockELj4064EEE
V _ZTVN6Genode6OutputE
V _ZTVN6Genode6ParentE
V _ZTVN6Genode6ThreadE
V _ZTVN6Genode7ConsoleE
V _ZTVN6Genode7ServiceE
V _ZTVN6Genode8Avl_treeINS_11Object_poolINS_15Rpc_object_baseEE5EntryEE6PolicyE
V _ZTVN6Genode8Avl_treeINS_11Object_poolINS_5Child7SessionEE5EntryEE6PolicyE
V _ZTVN6Genode8Avl_treeINS_18Allocator_avl_base5BlockEE6PolicyE
V _ZTVN6Genode9AllocatorE
V _ZTVN6Genode9DataspaceE
V _ZTVN6Linker10Elf_objectE
V _ZTVN6Linker2LdE
V _ZTVN6Linker4FileE
V _ZTVN6Linker6BinaryE
V _ZTVN6Linker6ObjectE
V _ZTVN6Linker8Elf_fileE
V _ZTVN6Linker9Ld_vtableE
V _ZTVSt10bad_typeid
V _ZTVSt13bad_exception
V _ZTVSt16bad_array_length
V _ZTVSt20bad_array_new_length
V _ZTVSt8bad_cast
V _ZTVSt9bad_alloc
V _ZTVSt9exception
V _ZTVSt9type_info
V _ZZN6Genode18Allocator_avl_base5BlockC4EmjbE10num_blocks
W memcpy
W memset
W _ZdlPv
W _ZN6Genode10Arg_string9_find_keyEPKcS2_
W _ZN6Genode10ConnectionIN5Timer7SessionEE7sessionEPKcz
W _ZN6Genode10ConnectionINS_11Log_sessionEE7sessionEPKcz
W _ZN6Genode10ConnectionINS_11Rom_sessionEE7sessionERNS_6ParentEPKcz
W _ZN6Genode10Entrypoint15_handle_suspendEv
W _ZN6Genode10Entrypoint19Signal_proxy_thread5entryEv
W _ZN6Genode10Entrypoint19Signal_proxy_threadD0Ev
W _ZN6Genode10Entrypoint19Signal_proxy_threadD1Ev
W _ZN6Genode10Entrypoint19Signal_proxy_threadD2Ev
W _ZN6Genode10Entrypoint22Signal_proxy_componentD0Ev
W _ZN6Genode10Entrypoint22Signal_proxy_componentD1Ev
W _ZN6Genode10Entrypoint22Signal_proxy_componentD2Ev
W _ZN6Genode10Rpc_objectINS_10Entrypoint12Signal_proxyENS1_22Signal_proxy_componentEE8dispatchENS_10Rpc_opcodeERNS_16Ipc_unmarshallerERNS_11Msgbuf_baseE
W _ZN6Genode10Rpc_objectINS_10Entrypoint12Signal_proxyENS1_22Signal_proxy_componentEED0Ev
W _ZN6Genode10Rpc_objectINS_10Entrypoint12Signal_proxyENS1_22Signal_proxy_componentEED1Ev
W _ZN6Genode10Rpc_objectINS_10Entrypoint12Signal_proxyENS1_22Signal_proxy_componentEED2Ev
W _ZN6Genode10Rpc_objectINS_14Rpc_entrypoint4ExitENS1_12Exit_handlerEE8dispatchENS_10Rpc_opcodeERNS_16Ipc_unmarshallerERNS_11Msgbuf_baseE
W _ZN6Genode10Rpc_objectINS_14Rpc_entrypoint4ExitENS1_12Exit_handlerEED0Ev
W _ZN6Genode10Rpc_objectINS_14Rpc_entrypoint4ExitENS1_12Exit_handlerEED1Ev
W _ZN6Genode10Rpc_objectINS_14Rpc_entrypoint4ExitENS1_12Exit_handlerEED2Ev
W _ZN6Genode10Rpc_objectINS_6ParentES1_E8dispatchENS_10Rpc_opcodeERNS_16Ipc_unmarshallerERNS_11Msgbuf_baseE
W _ZN6Genode11Object_poolINS_15Rpc_object_baseEE5Entry10Entry_lockD1Ev
W _ZN6Genode11Object_poolINS_15Rpc_object_baseEE5Entry10Entry_lockD2Ev
W _ZN6Genode11Object_poolINS_15Rpc_object_baseEE5EntryD0Ev
W _ZN6Genode11Object_poolINS_15Rpc_object_baseEE5EntryD1Ev
W _ZN6Genode11Object_poolINS_15Rpc_object_baseEE5EntryD2Ev
W _ZN6Genode11Object_poolINS_5Child7SessionEE5Entry10Entry_lockD1Ev
W _ZN6Genode11Object_poolINS_5Child7SessionEE5Entry10Entry_lockD2Ev
W _ZN6Genode11Object_poolINS_5Child7SessionEE5EntryD0Ev
W _ZN6Genode11Object_poolINS_5Child7SessionEE5EntryD1Ev
W _ZN6Genode11Object_poolINS_5Child7SessionEE5EntryD2Ev
W _ZN6Genode11Rom_session6updateEv
W _ZN6Genode12Child_policy14yield_responseEv
W _ZN6Genode12Child_policy15ref_ram_sessionEv
W _ZN6Genode12Child_policy16announce_serviceEPKcNS_10CapabilityINS_4RootEEEPNS_9AllocatorEPNS_6ServerE
W _ZN6Genode12Child_policy16resource_requestERKNS_6StringILj160EEE
W _ZN6Genode12Child_policy19filter_session_argsEPKcPcj
W _ZN6Genode12Child_policy19unregister_servicesEv
W _ZN6Genode12Child_policy23filter_session_affinityERKNS_8AffinityE
W _ZN6Genode12Child_policy23resolve_session_requestEPKcS2_
W _ZN6Genode12Child_policy4exitEi
W _ZN6Genode12Local_parentD0Ev
W _ZN6Genode12Local_parentD1Ev
W _ZN6Genode12Local_parentD2Ev
W _ZN6Genode12Platform_env4heapEv
W _ZN6Genode12Platform_env6parentEv
W _ZN6Genode12Platform_env7releaseEv
W _ZN6Genode12Platform_envD1Ev
W _ZN6Genode12Platform_envD2Ev
W _ZN6Genode13Avl_node_base16_recompute_depthERNS0_6PolicyE
W _ZN6Genode13Avl_node_base6Policy9recomputeEPS0_
W _ZN6Genode13Parent_client10yield_sighENS_10CapabilityINS_14Signal_contextEEE
W _ZN6Genode13Parent_client13yield_requestEv
W _ZN6Genode13Parent_client14yield_responseEv
W _ZN6Genode13Parent_client16resource_requestERKNS_6StringILj160EEE
W _ZN6Genode13Parent_client19resource_avail_sighENS_10CapabilityINS_14Signal_contextEEE
W _ZN6Genode13Parent_client4exitEi
W _ZN6Genode13Parent_client5closeENS_10CapabilityINS_7SessionEEE
W _ZN6Genode13Parent_client7sessionERKNS_13Rpc_in_bufferILj64EEERKNS1_ILj160EEERKNS_8AffinityE
W _ZN6Genode13Parent_client7upgradeENS_10CapabilityINS_7SessionEEERKNS_13Rpc_in_bufferILj160EEE
W _ZN6Genode13Parent_client8announceERKNS_13Rpc_in_bufferILj64EEENS_10CapabilityINS_4RootEEE
W _ZN6Genode13Parent_clientD0Ev
W _ZN6Genode13Parent_clientD1Ev
W _ZN6Genode13Parent_clientD2Ev
W _ZN6Genode13Weak_ptr_base13_disassociateEv
W _ZN6Genode13Xml_attributeC1ENS_5TokenINS0_29Scanner_policy_xml_identifierEEE
W _ZN6Genode13Xml_attributeC2ENS_5TokenINS0_29Scanner_policy_xml_identifierEEE
W _ZN6Genode14Log_connectionD0Ev
W _ZN6Genode14Log_connectionD1Ev
W _ZN6Genode14Log_connectionD2Ev
W _ZN6Genode14Parent_service5closeENS_10CapabilityINS_7SessionEEE
W _ZN6Genode14Parent_service7sessionEPKcRKNS_8AffinityE
W _ZN6Genode14Parent_service7upgradeENS_10CapabilityINS_7SessionEEEPKc
W _ZN6Genode14Parent_serviceD0Ev
W _ZN6Genode14Parent_serviceD1Ev
W _ZN6Genode14Parent_serviceD2Ev
W _ZN6Genode14Rom_connectionD0Ev
W _ZN6Genode14Rom_connectionD1Ev
W _ZN6Genode14Rom_connectionD2Ev
W _ZN6Genode14Rpc_entrypoint12Exit_handlerD0Ev
W _ZN6Genode14Rpc_entrypoint12Exit_handlerD1Ev
W _ZN6Genode14Rpc_entrypoint12Exit_handlerD2Ev
W _ZN6Genode14Signal_handlerINS_10EntrypointES1_E8dispatchEj
W _ZN6Genode14Signal_handlerINS_10EntrypointES1_ED0Ev
W _ZN6Genode14Signal_handlerINS_10EntrypointES1_ED1Ev
W _ZN6Genode14Signal_handlerINS_10EntrypointES1_ED2Ev
W _ZN6Genode14String_console9_out_charEc
W _ZN6Genode14String_consoleD0Ev
W _ZN6Genode14String_consoleD1Ev
W _ZN6Genode14String_consoleD2Ev
W _ZN6Genode14Timeout_threadD0Ev
W _ZN6Genode14Timeout_threadD1Ev
W _ZN6Genode14Timeout_threadD2Ev
W _ZN6Genode15Region_map_mmap13fault_handlerENS_10CapabilityINS_14Signal_contextEEE
W _ZN6Genode15Region_map_mmap4sizeEv
W _ZN6Genode15Region_map_mmap5stateEv
W _ZN6Genode15Region_map_mmap8writableEv
W _ZN6Genode15Region_map_mmap9dataspaceEv
W _ZN6Genode15Region_map_mmap9phys_addrEv
W _ZN6Genode15Region_map_mmapD0Ev
W _ZN6Genode15Region_map_mmapD1Ev
W _ZN6Genode15Region_map_mmapD2Ev
W _ZN6Genode16Dataspace_client4sizeEv
W _ZN6Genode16Dataspace_client8writableEv
W _ZN6Genode16Dataspace_client9phys_addrEv
W _ZN6Genode16Dataspace_clientD0Ev
W _ZN6Genode16Dataspace_clientD1Ev
W _ZN6Genode16Dataspace_clientD2Ev
W _ZN6Genode16Local_pd_session10stack_areaEv
W _ZN6Genode16Local_pd_session11linker_areaEv
W _ZN6Genode16Local_pd_session13address_spaceEv
W _ZN6Genode16Local_pd_sessionD0Ev
W _ZN6Genode16Local_pd_sessionD1Ev
W _ZN6Genode16Local_pd_sessionD2Ev
W _ZN6Genode16Local_rm_session6createEj
W _ZN6Genode16Local_rm_session7destroyENS_10CapabilityINS_10Region_mapEEE
W _ZN6Genode16Weak_object_base20lock_for_destructionEv
W _ZN6Genode16Weak_object_base9_weak_ptrINS_11Object_poolINS_5Child7SessionEE5Entry10Entry_lockEEENS_8Weak_ptrIT_EEv
W _ZN6Genode17Allocator_avl_tplINS_5EmptyELj4064EE9add_rangeEmj
W _ZN6Genode17Allocator_avl_tplINS_5EmptyELj4064EED0Ev
W _ZN6Genode17Allocator_avl_tplINS_5EmptyELj4064EED1Ev
W _ZN6Genode17Allocator_avl_tplINS_5EmptyELj4064EED2Ev
W _ZN6Genode17Cpu_thread_client11single_stepEb
W _ZN6Genode17Cpu_thread_client12trace_bufferEv
W _ZN6Genode17Cpu_thread_client12trace_policyEv
W _ZN6Genode17Cpu_thread_client14exception_sighENS_10CapabilityINS_14Signal_contextEEE
W _ZN6Genode17Cpu_thread_client15cancel_blockingEv
W _ZN6Genode17Cpu_thread_client19trace_control_indexEv
W _ZN6Genode17Cpu_thread_client4utcbEv
W _ZN6Genode17Cpu_thread_client5pauseEv
W _ZN6Genode17Cpu_thread_client5startEmm
W _ZN6Genode17Cpu_thread_client5stateERKNS_12Thread_stateE
W _ZN6Genode17Cpu_thread_client5stateEv
W _ZN6Genode17Cpu_thread_client6resumeEv
W _ZN6Genode17Cpu_thread_client8affinityENS_8Affinity8LocationE
W _ZN6Genode17Pd_session_client10assign_pciEmt
W _ZN6Genode17Pd_session_client10stack_areaEv
W _ZN6Genode17Pd_session_client11linker_areaEv
W _ZN6Genode17Pd_session_client12free_contextENS_10CapabilityINS_14Signal_contextEEE
W _ZN6Genode17Pd_session_client12free_rpc_capENS_21Native_capability_tplINS_14Cap_dst_policyEEE
W _ZN6Genode17Pd_session_client13address_spaceEv
W _ZN6Genode17Pd_session_client13alloc_contextENS_10CapabilityINS_13Signal_sourceEEEm
W _ZN6Genode17Pd_session_client13alloc_rpc_capENS_21Native_capability_tplINS_14Cap_dst_policyEEE
W _ZN6Genode17Pd_session_client13assign_parentENS_10CapabilityINS_6ParentEEE
W _ZN6Genode17Pd_session_client18free_signal_sourceENS_10CapabilityINS_13Signal_sourceEEE
W _ZN6Genode17Pd_session_client19alloc_signal_sourceEv
W _ZN6Genode17Pd_session_client6submitENS_10CapabilityINS_14Signal_contextEEEj
W _ZN6Genode17Pd_session_client9native_pdEv
W _ZN6Genode17Pd_session_clientD0Ev
W _ZN6Genode17Pd_session_clientD1Ev
W _ZN6Genode17Pd_session_clientD2Ev
W _ZN6Genode17Platform_env_base10pd_sessionEv
W _ZN6Genode17Platform_env_base10rm_sessionEv
W _ZN6Genode17Platform_env_base11cpu_sessionEv
W _ZN6Genode17Platform_env_base11ram_sessionEv
W _ZN6Genode17Platform_env_base14pd_session_capEv
W _ZN6Genode17Platform_env_base15cpu_session_capEv
W _ZN6Genode17Platform_env_base15ram_session_capEv
W _ZN6Genode17Platform_env_baseD1Ev
W _ZN6Genode17Platform_env_baseD2Ev
W _ZN6Genode18Allocator_avl_base4freeEPvj
W _ZN6Genode18Allocator_avl_base5allocEjPPv
W _ZN6Genode18Allocator_avl_baseD0Ev
W _ZN6Genode18Allocator_avl_baseD1Ev
W _ZN6Genode18Allocator_avl_baseD2Ev
W _ZN6Genode18Cpu_session_client10native_cpuEv
W _ZN6Genode18Cpu_session_client11kill_threadENS_10CapabilityINS_10Cpu_threadEEE
W _ZN6Genode18Cpu_session_client11ref_accountENS_10CapabilityINS_11Cpu_sessionEEE
W _ZN6Genode18Cpu_session_client13create_threadENS_10CapabilityINS_10Pd_sessionEEERKNS_6StringILj32EEENS_8Affinity8LocationENS_11Cpu_session6WeightEm
W _ZN6Genode18Cpu_session_client13trace_controlEv
W _ZN6Genode18Cpu_session_client14exception_sighENS_10CapabilityINS_14Signal_contextEEE
W _ZN6Genode18Cpu_session_client14transfer_quotaENS_10CapabilityINS_11Cpu_sessionEEEj
W _ZN6Genode18Cpu_session_client5quotaEv
W _ZN6Genode18Cpu_session_clientD0Ev
W _ZN6Genode18Cpu_session_clientD1Ev
W _ZN6Genode18Cpu_session_clientD2Ev
W _ZN6Genode18init_signal_threadERNS_3EnvE
W _ZN6Genode18Log_session_client5writeERKNS_13Rpc_in_bufferILj236EEE
W _ZN6Genode18Log_session_clientD0Ev
W _ZN6Genode18Log_session_clientD1Ev
W _ZN6Genode18Log_session_clientD2Ev
W _ZN6Genode18Ram_session_client11ref_accountENS_10CapabilityINS_11Ram_sessionEEE
W _ZN6Genode18Ram_session_client14transfer_quotaENS_10CapabilityINS_11Ram_sessionEEEj
W _ZN6Genode18Ram_session_client4freeENS_10CapabilityINS_13Ram_dataspaceEEE
W _ZN6Genode18Ram_session_client4usedEv
W _ZN6Genode18Ram_session_client5allocEjNS_15Cache_attributeE
W _ZN6Genode18Ram_session_client5quotaEv
W _ZN6Genode18Ram_session_clientD0Ev
W _ZN6Genode18Ram_session_clientD1Ev
W _ZN6Genode18Ram_session_clientD2Ev
W _ZN6Genode18Rom_session_client4sighENS_10CapabilityINS_14Signal_contextEEE
W _ZN6Genode18Rom_session_client6updateEv
W _ZN6Genode18Rom_session_client9dataspaceEv
W _ZN6Genode18Rom_session_clientD0Ev
W _ZN6Genode18Rom_session_clientD1Ev
W _ZN6Genode18Rom_session_clientD2Ev
W _ZN6Genode18Upgradeable_clientINS_18Cpu_session_clientEE11upgrade_ramEj
W _ZN6Genode18Upgradeable_clientINS_18Cpu_session_clientEED0Ev
W _ZN6Genode18Upgradeable_clientINS_18Cpu_session_clientEED1Ev
W _ZN6Genode18Upgradeable_clientINS_18Cpu_session_clientEED2Ev
W _ZN6Genode18Upgradeable_clientINS_18Ram_session_clientEE11upgrade_ramEj
W _ZN6Genode18Upgradeable_clientINS_18Ram_session_clientEED0Ev
W _ZN6Genode18Upgradeable_clientINS_18Ram_session_clientEED1Ev
W _ZN6Genode18Upgradeable_clientINS_18Ram_session_clientEED2Ev
W _ZN6Genode20Lazy_volatile_objectI21Signal_handler_threadED1Ev
W _ZN6Genode20Lazy_volatile_objectI21Signal_handler_threadED2Ev
W _ZN6Genode20Signal_source_client15wait_for_signalEv
W _ZN6Genode20Signal_source_clientD0Ev
W _ZN6Genode20Signal_source_clientD1Ev
W _ZN6Genode20Signal_source_clientD2Ev
W _ZN6Genode22Linux_dataspace_client2fdEv
W _ZN6Genode22Linux_dataspace_client4sizeEv
W _ZN6Genode22Linux_dataspace_client5fnameEv
W _ZN6Genode22Linux_dataspace_client8writableEv
W _ZN6Genode22Linux_dataspace_client9phys_addrEv
W _ZN6Genode22Linux_dataspace_clientD0Ev
W _ZN6Genode22Linux_dataspace_clientD1Ev
W _ZN6Genode22Linux_dataspace_clientD2Ev
W _ZN6Genode23Expanding_parent_client16resource_requestERKNS_6StringILj160EEE
W _ZN6Genode23Expanding_parent_client19resource_avail_sighENS_10CapabilityINS_14Signal_contextEEE
W _ZN6Genode23Expanding_parent_client7sessionERKNS_13Rpc_in_bufferILj64EEERKNS1_ILj160EEERKNS_8AffinityE
W _ZN6Genode23Expanding_parent_client7upgradeENS_10CapabilityINS_7SessionEEERKNS_13Rpc_in_bufferILj160EEE
W _ZN6Genode23Expanding_parent_clientD0Ev
W _ZN6Genode23Expanding_parent_clientD1Ev
W _ZN6Genode23Expanding_parent_clientD2Ev
W _ZN6Genode23Linux_native_cpu_client9client_sdENS_10CapabilityINS_10Cpu_threadEEE
W _ZN6Genode23Linux_native_cpu_client9server_sdENS_10CapabilityINS_10Cpu_threadEEE
W _ZN6Genode23Linux_native_cpu_client9thread_idENS_10CapabilityINS_10Cpu_threadEEEii
W _ZN6Genode28Expanding_cpu_session_client13create_threadENS_10CapabilityINS_10Pd_sessionEEERKNS_6StringILj32EEENS_8Affinity8LocationENS_11Cpu_session6WeightEm
W _ZN6Genode28Expanding_cpu_session_clientD0Ev
W _ZN6Genode28Expanding_cpu_session_clientD1Ev
W _ZN6Genode28Expanding_cpu_session_clientD2Ev
W _ZN6Genode28Expanding_ram_session_client14transfer_quotaENS_10CapabilityINS_11Ram_sessionEEEj
W _ZN6Genode28Expanding_ram_session_client5allocEjNS_15Cache_attributeE
W _ZN6Genode28Expanding_ram_session_clientD0Ev
W _ZN6Genode28Expanding_ram_session_clientD1Ev
W _ZN6Genode28Expanding_ram_session_clientD2Ev
W _ZN6Genode3ArgC1ENS_5TokenINS_40Scanner_policy_identifier_with_underlineEEE
W _ZN6Genode3ArgC2ENS_5TokenINS_40Scanner_policy_identifier_with_underlineEEE
W _ZN6Genode4Lock4lockEv
W _ZN6Genode4Slab4freeEPvj
W _ZN6Genode5Alarm8on_alarmEj
W _ZN6Genode5Child14Initial_thread3capEv
W _ZN6Genode5Child7SessionD0Ev
W _ZN6Genode5Child7SessionD1Ev
W _ZN6Genode5Child7SessionD2Ev
W _ZN6Genode5digitEcb
W _ZN6Genode5TslabINS_17Allocator_avl_tplINS_5EmptyELj4064EE5BlockELj4064EED0Ev
W _ZN6Genode5TslabINS_17Allocator_avl_tplINS_5EmptyELj4064EE5BlockELj4064EED1Ev
W _ZN6Genode5TslabINS_17Allocator_avl_tplINS_5EmptyELj4064EE5BlockELj4064EED2Ev
W _ZN6Genode6ConfigD1Ev
W _ZN6Genode6ConfigD2Ev
W _ZN6Genode7memmoveEPvPKvj
W _ZN6Genode7Service5closeENS_10CapabilityINS_7SessionEEE
W _ZN6Genode7StartupD1Ev
W _ZN6Genode7StartupD2Ev
W _ZN6Genode8Avl_treeINS_11Object_poolINS_15Rpc_object_baseEE5EntryEE6Policy9recomputeEPNS_13Avl_node_baseE
W _ZN6Genode8Avl_treeINS_11Object_poolINS_15Rpc_object_baseEE5EntryEE6PolicyD0Ev
W _ZN6Genode8Avl_treeINS_11Object_poolINS_15Rpc_object_baseEE5EntryEE6PolicyD1Ev
W _ZN6Genode8Avl_treeINS_11Object_poolINS_15Rpc_object_baseEE5EntryEE6PolicyD2Ev
W _ZN6Genode8Avl_treeINS_11Object_poolINS_5Child7SessionEE5EntryEE6Policy9recomputeEPNS_13Avl_node_baseE
W _ZN6Genode8Avl_treeINS_11Object_poolINS_5Child7SessionEE5EntryEE6PolicyD0Ev
W _ZN6Genode8Avl_treeINS_11Object_poolINS_5Child7SessionEE5EntryEE6PolicyD1Ev
W _ZN6Genode8Avl_treeINS_11Object_poolINS_5Child7SessionEE5EntryEE6PolicyD2Ev
W _ZN6Genode8Avl_treeINS_18Allocator_avl_base5BlockEE6Policy9recomputeEPNS_13Avl_node_baseE
W _ZN6Genode8Avl_treeINS_18Allocator_avl_base5BlockEE6PolicyD0Ev
W _ZN6Genode8Avl_treeINS_18Allocator_avl_base5BlockEE6PolicyD1Ev
W _ZN6Genode8Avl_treeINS_18Allocator_avl_base5BlockEE6PolicyD2Ev
W _ZN6Genode8snprintfEPcjPKcz
W _ZN6Genode8Xml_node3TagC1ENS_5TokenINS_13Xml_attribute29Scanner_policy_xml_identifierEEE
W _ZN6Genode8Xml_node3TagC2ENS_5TokenINS_13Xml_attribute29Scanner_policy_xml_identifierEEE
W _ZN6Genode8Xml_node7CommentC1ENS_5TokenINS_13Xml_attribute29Scanner_policy_xml_identifierEEE
W _ZN6Genode8Xml_node7CommentC2ENS_5TokenINS_13Xml_attribute29Scanner_policy_xml_identifierEEE
W _ZN6Genode8Xml_nodeC1EPKcj
W _ZN6Genode8Xml_nodeC2EPKcj
W _ZN6Genode9SemaphoreD1Ev
W _ZN6Genode9SemaphoreD2Ev
W _ZNK6Genode11Sliced_heap18need_size_for_freeEv
W _ZNK6Genode11Sliced_heap8consumedEv
W _ZNK6Genode12Child_policy11ref_ram_capEv
W _ZNK6Genode13Parent_client15main_thread_capEv
W _ZNK6Genode18Allocator_avl_base18need_size_for_freeEv
W _ZNK6Genode18Allocator_avl_base8overheadEj
W _ZNK6Genode18Cpu_session_client14affinity_spaceEv
W _ZNK6Genode3Arg10read_ulongEPmPi
W _ZNK6Genode4Heap18need_size_for_freeEv
W _ZNK6Genode4Heap8consumedEv
W _ZNK6Genode4Heap8overheadEj
W _ZNK6Genode4Slab18need_size_for_freeEv
W _ZNK6Genode4Slab8overheadEj
W _ZNK6Genode5TokenINS_13Xml_attribute29Scanner_policy_xml_identifierEE14eat_whitespaceEv
W _ZNK6Genode5TokenINS_13Xml_attribute29Scanner_policy_xml_identifierEE4nextEv
W _ZNK6Genode5TokenINS_13Xml_attribute29Scanner_policy_xml_identifierEE5_typeEj
W _ZNK6Genode5TokenINS_13Xml_attribute29Scanner_policy_xml_identifierEE9_calc_lenEj
W _ZNK6Genode5TokenINS_40Scanner_policy_identifier_with_underlineEE14eat_whitespaceEv
W _ZNK6Genode5TokenINS_40Scanner_policy_identifier_with_underlineEE9_calc_lenEj
W _ZNK6Genode7Service6serverEv
W _ZNK6Genode8Avl_treeINS_11Object_poolINS_15Rpc_object_baseEE5EntryEE6Policy6higherEPNS_13Avl_node_baseES8_
W _ZNK6Genode8Avl_treeINS_11Object_poolINS_5Child7SessionEE5EntryEE6Policy6higherEPNS_13Avl_node_baseES9_
W _ZNK6Genode8Avl_treeINS_18Allocator_avl_base5BlockEE6Policy6higherEPNS_13Avl_node_baseES6_
W _ZNK6Genode8Xml_node3Tag10next_tokenEv
W _ZNK6Genode9Allocator8consumedEv
W _ZNSt13bad_exceptionC1Ev
W _ZNSt13bad_exceptionC2Ev
W _ZNSt9exceptionC1Ev
W _ZNSt9exceptionC2Ev
W _ZZN6Genode23Expanding_parent_client7sessionERKNS_13Rpc_in_bufferILj64EEERKNS1_ILj160EEERKNS_8AffinityEENKUlvE0_clEv
W _ZZN6Genode23Expanding_parent_client7upgradeENS_10CapabilityINS_7SessionEEERKNS_13Rpc_in_bufferILj160EEEENKUlvE0_clEv
W _ZZN6Genode28Expanding_ram_session_client5allocEjNS_15Cache_attributeEENKUlvE0_clEv
