A errno
A FBSD_1.0
B __cleanup
B __collate_chain_pri_table
B __collate_char_pri_table_ptr
B __collate_substitute_nontrivial
B __collate_substitute_table_ptr
b _end
B environ
B __gdtoa_locks
B __hexdig_D2A
B __isthreaded
B _logname_valid
B optarg
B optopt
B optreset
B _PathLocale
B __progname
B __sdidinit
B _sigintr
B suboptarg
B _thread_autoinit_dummy_decl_stub
B _ZN4Libc33original_call_component_constructE
D __collate_load_error
D _ctors_end
D _ctors_start
D _CurrentRuneLocale
D _DefaultRuneLocale
d __exidx_end
d __exidx_start
D __l4sys_invoke_indirect
D __mb_cur_max
D __mbrtowc
D __mb_sb_limit
D __mbsinit
D __mbsnrtowcs
D __mlocale_changed
D __nlocale_changed
D opterr
D optind
D _parent_cap
D _parent_cap_local_name
D _parent_cap_thread_id
D _rand48_add
D _rand48_mult
D _rand48_seed
D __sglue
D __stderrp
D __stdinp
D __stdoutp
D sys_errlist
D sys_siglist
D sys_signame
D __thr_jtable
D tzname
D __use_xprintf
D __wcrtomb
D __wcsnrtombs
R __bigtens_D2A
r __bss_start
r _edata
R __eh_frame_start__
R __lowercase_hex
R sys_nerr
R sys_nsig
R __tens_D2A
R __tinytens_D2A
R __uppercase_hex
T a64l
T abort
T abs
T accept
T _accept
T access
T alarm
T alphasort
T __any_on_D2A
T __aout_fdnlist
T arc4random
T arc4random_addrandom
T arc4random_buf
T arc4random_stir
T arc4random_uniform
T _ascii_init
T asctime
T asctime_r
T asprintf
T __assert
T atexit
T atof
T atoi
T atol
T atoll
T _atomic_lock_stub
T __b2d_D2A
T __Balloc_D2A
T basename
T bcmp
T bcopy
T __Bfree_D2A
T _BIG5_init
T bind
T _bind
T bsearch
T btowc
T bzero
T calloc
T cfgetispeed
T cfgetospeed
T cfmakeraw
T cfsetispeed
T cfsetospeed
T cfsetspeed
T cgetcap
T cgetclose
T cgetent
T cgetfirst
T cgetmatch
T cgetnext
T cgetnum
T cgetset
T cgetstr
T cgetustr
T chdir
T check_utility_compat
T _cleanup
T clearerr
T clearerr_unlocked
T clock
T close
T _close
T closedir
T closelog
T __cmp_D2A
T __collate_err
T __collate_load_tables
T __collate_lookup
T __collate_range_cmp
T __collate_strdup
T __collate_substitute
T confstr
T connect
T _connect
T __copybits_D2A
T __creat
T ctermid
T ctermid_r
T ctime
T ctime_r
T _ctx_done
T _ctx_start
T __cxa_finalize
T __d2b_D2A
T daemon
T __decrement_D2A
T des_cipher
T des_setkey
T __detect_path_locale
T __diff_D2A
T difftime
T digittoint
T dirname
T div
T dladdr
T dlclose
T dlerror
T dlfunc
T dlinfo
T dlopen
T dlsym
T dlvsym
T _dorand48
T dprintf
T drand48
T __dtoa
T dup
T _dup
T dup2
T _dup2
T __elf_fdnlist
T __elf_is_okay__
T encrypt
T endfsent
T endgrent
T endnetgrent
T endttyent
T endusershell
T erand48
T _err
T errc
T __error
T err_set_exit
T err_set_file
T errx
T _EUC_init
T execl
T execle
T execlp
T execv
T execve
T _execve
T execvp
T execvP
T _execvpe
T exit
T _exit
T _Exit
T fchdir
T fclose
T __fcloseall
T fcntl
T _fcntl
T fdevname
T fdevname_r
T __fdnlist
T fdopen
T fdopendir
T feof
T feof_unlocked
T ferror
T ferror_unlocked
T fflagstostr
T fflush
T __fflush
T ffs
T ffsl
T ffsll
T fgetc
T fgetln
T fgetpos
T fgets
T fgetwc
T __fgetwc
T fgetwln
T fgetws
T fileno
T fileno_unlocked
T __find_arguments
T __find_warguments
T __fix_locale_grouping_str
T _flockfile
T _flockfile_debug_stub
T fls
T flsl
T flsll
T __flt_rounds
T __fmtcheck
T fmtmsg
T fnmatch
T fopen
T __fpclassifyd
T __fpclassifyf
T __fpclassifyl
T f_prealloc
T fprintf
T fpurge
T fputc
T fputs
T fputwc
T __fputwc
T fputws
T fread
T __fread
T free
T freeaddrinfo
T freebsd7_semctl
T __freedtoa
T freopen
T fscanf
T fseek
T fseeko
T _fseeko
T fsetpos
T fstat
T _fstat
T fstatat
T _fstatfs
T fstatvfs
T fsync
T ftell
T ftello
T _ftello
T ftok
T ftruncate
T _ftrylockfile
T fts_children
T fts_children
T __fts_children_44bsd
T fts_close
T fts_close
T __fts_close_44bsd
T fts_get_clientptr
T fts_get_clientptr
T __fts_get_clientptr_44bsd
T fts_get_stream
T fts_get_stream
T __fts_get_stream_44bsd
T fts_open
T fts_open
T __fts_open_44bsd
T fts_read
T fts_read
T __fts_read_44bsd
T fts_set
T fts_set
T __fts_set_44bsd
T fts_set_clientptr
T fts_set_clientptr
T __fts_set_clientptr_44bsd
T ftw
T _funlockfile
T funopen
T _fwalk
T fwide
T fwprintf
T fwrite
T fwscanf
T gai_strerror
T _GB18030_init
T _GB2312_init
T _GBK_init
T __g_ddfmt
T __g_dfmt
T __gdtoa
T genode_printf
T getaddrinfo
T getbootfile
T getbsize
T getc
T getchar
T getchar_unlocked
T getc_unlocked
T __get_current_messages_locale
T __get_current_monetary_locale
T __get_current_numeric_locale
T __get_current_time_locale
T getcwd
T __getcwd
T getdelim
T _getdirentries
T getdiskbyname
T getdomainname
T getenv
T getfsent
T getfsfile
T getfsspec
T getfstab
T getgrent
T getgrent_r
T getgrgid
T getgrgid_r
T getgrnam
T getgrnam_r
T getgrouplist
T __getgroupmembership
T __gethex_D2A
T gethostid
T gethostname
T getline
T getloadavg
T getlogin
T getlogin_r
T getmntinfo
T getmode
T getnetgrent
T getopt
T getopt_long
T getopt_long_only
T __getosreldate
T getpagesize
T getpass
T getpeereid
T getpeername
T _getpeername
T _getprogname
T gets
T getsockname
T _getsockname
T getsockopt
T _getsockopt
T getsubopt
T getttyent
T getttynam
T getusershell
T getw
T getwc
T getwchar
T getwd
T __g_ffmt
T __g__fmt_D2A
T glob
T globfree
T gmtime
T gmtime_r
T __g_Qfmt
T grantpt
T __gr_match_entry
T group_from_gid
T __gr_parse_entry
T __g_xfmt
T __g_xLfmt
T hcreate
T hdestroy
T __hdtoa
T heapsort
T __hexdig_init_D2A
T __hexnan_D2A
T __hi0bits_D2A
T __hldtoa
T hsearch
T __i2b_D2A
T imaxabs
T imaxdiv
T __increment_D2A
T index
T __inet_addr
T __inet_aton
T __inet_cidr_ntop
T __inet_cidr_pton
T __inet_lnaof
T __inet_makeaddr
T __inet_neta
T __inet_net_ntop
T __inet_netof
T __inet_net_pton
T __inet_network
T __inet_nsap_addr
T __inet_nsap_ntoa
T __inet_ntoa
T __inet_ntoa_r
T __inet_ntop
T __inet_pton
T _init
T initgroups
T initstate
T _init_tls
T innetgr
T insque
T _int_to_time
T ioctl
T _ioctl
T isalnum
T isalpha
T isascii
T isatty
T isblank
T iscntrl
T __isctype
T isdialuptty
T isdigit
T isgraph
T ishexnumber
T isideogram
T __isinf
T __isinff
T __isinfl
T islower
T __isnan
T __isnanf
T isnettty
T isnumber
T isphonogram
T isprint
T ispunct
T isrune
T issetugid
T isspace
T isspecial
T __istype
T isupper
T iswalnum
T iswalpha
T iswascii
T iswblank
T iswcntrl
T iswctype
T iswdigit
T iswgraph
T iswhexnumber
T iswideogram
T iswlower
T iswnumber
T iswphonogram
T iswprint
T iswpunct
T iswrune
T iswspace
T iswspecial
T iswupper
T iswxdigit
T isxdigit
T jrand48
T killpg
T ksem_init
T l64a
T l64a_r
T labs
T lcong48
T ldexp
T ldiv
T __ldtoa
T lfind
T __libc_allocate_tls
T __libc_free_tls
T ___libc_tls_get_addr
T __libc_tls_get_addr
T listen
T _listen
T llabs
T lldiv
T __lo0bits_D2A
T localeconv
T localtime
T localtime_r
T lockf
T __longjmp
T ___longjmp
T longjmperror
T _long_to_time
T lrand48
T lsearch
T lseek
T __lshift_D2A
T lstat
T __makecontext
T malloc
T __maskrune
T __match_D2A
T mblen
T mbrlen
T mbrtowc
T mbsinit
T mbsnrtowcs
T __mbsnrtowcs_std
T mbsrtowcs
T mbstowcs
T mbtowc
T memccpy
T memchr
T memcmp
T memcpy
T memmem
T memmove
T memrchr
T memset
T mergesort
T __messages_load_locale
T mkdir
T mkdtemp
T mkstemp
T mkstemps
T mktemp
T _mktemp
T mktime
T mmap
T __monetary_load_locale
T mrand48
T _MSKanji_init
T __multadd_D2A
T __mult_D2A
T munmap
T nextwctype
T nftw
T nice
T nlist
T nl_langinfo
T _none_init
T nrand48
T __nrv_alloc_D2A
T __numeric_load_locale
T offtime
T _once
T open
T _open
T opendir
T __opendir2
T openlog
T __part_load_locale
T __pause
T pclose
T perror
T pipe
T popen
T posix2time
T posix_madvise
T posix_spawn
T posix_spawnattr_destroy
T posix_spawnattr_getflags
T posix_spawnattr_getpgroup
T posix_spawnattr_getschedparam
T posix_spawnattr_getschedpolicy
T posix_spawnattr_getsigdefault
T posix_spawnattr_getsigmask
T posix_spawnattr_init
T posix_spawnattr_setflags
T posix_spawnattr_setpgroup
T posix_spawnattr_setschedparam
T posix_spawnattr_setschedpolicy
T posix_spawnattr_setsigdefault
T posix_spawnattr_setsigmask
T posix_spawn_file_actions_addclose
T posix_spawn_file_actions_adddup2
T posix_spawn_file_actions_addopen
T posix_spawn_file_actions_destroy
T posix_spawn_file_actions_init
T posix_spawnp
T __pow5mult_D2A
T pread
T printf
T __printf_arginfo_chr
T __printf_arginfo_errno
T __printf_arginfo_float
T __printf_arginfo_hexdump
T __printf_arginfo_int
T __printf_arginfo_ptr
T __printf_arginfo_quote
T __printf_arginfo_str
T __printf_arginfo_time
T __printf_arginfo_vis
T __printf_flush
T __printf_out
T __printf_pad
T __printf_puts
T __printf_render_chr
T __printf_render_errno
T __printf_render_float
T __printf_render_hexdump
T __printf_render_int
T __printf_render_ptr
T __printf_render_quote
T __printf_render_str
T __printf_render_time
T __printf_render_vis
T psignal
T ptsname
T putc
T putchar
T putchar_unlocked
T putc_unlocked
T putenv
T puts
T putw
T putwc
T putwchar
T pwrite
T __pw_scan
T qsort
T qsort_r
T __quorem_D2A
T radixsort
T __raise
T rand
T random
T rand_r
T __ratio_D2A
T read
T _read
T readdir
T readdir_r
T _readdir_unlocked
T readlink
T readpassphrase
T _Read_RuneMagi
T readv
T _readv
T realloc
T reallocf
T realpath
T _reclaim_telldir
T recv
T recvfrom
T _recvfrom
T recvmsg
T regcomp
T regerror
T regexec
T regfree
T register_printf_function
T register_printf_render
T register_printf_render_std
T remove
T remque
T rename
T rewind
T rewinddir
T rindex
T rmdir
T rpmatch
T __rshift_D2A
T ___runetype
T __rv_alloc_D2A
T __s2b_D2A
T __sbistype
T __sbmaskrune
T __sbtolower
T __sbtoupper
T scandir
T scanf
T __sclose
T seed48
T seekdir
T _seekdir
T semctl
T semctl
T send
T sendto
T _sendto
T setbuf
T setbuffer
T setdomainname
T setenv
T setfsent
T setfstab
T setgrent
T setgroupent
T sethostid
T sethostname
T setjmp
T _setjmp
T setkey
T setlinebuf
T setlocale
T setlogmask
T setmode
T setnetgrent
T __set_ones_D2A
T setpgrp
T setprogname
T setrgid
T setruid
T setsockopt
T _setsockopt
T setstate
T setttyent
T setusershell
T setvbuf
T __sflags
T __sflush
T __sfp
T __sfvwrite
T shutdown
T sigaddset
T sigblock
T sigdelset
T sigemptyset
T sigfillset
T sighold
T sigignore
T siginterrupt
T sigismember
T __siglongjmp
T signal
T sigpause
T sigrelse
T sigset
T sigsetjmp
T sigsetmask
T sigvec
T __sinit
T sl_add
T __slbexpand
T __sleep
T sl_find
T sl_free
T sl_init
T __smakebuf
T snprintf
T socket
T _socket
T _spinlock_debug_stub
T _spinlock_stub
T _spinunlock_stub
T sprintf
T sradixsort
T srand
T srand48
T sranddev
T srandom
T srandomdev
T _sread
T __sread
T __srefill
T __srget
T sscanf
T _sseek
T __sseek
T stat
T statvfs
T stpcpy
T stpncpy
T strcasecmp
T strcasestr
T strcat
T strchr
T strcmp
T strcoll
T __strcp_D2A
T strcpy
T strcspn
T strdup
T strerror
T strerror_r
T strfmon
T strftime
T strlcat
T strlcpy
T strlen
T strmode
T strncasecmp
T strncat
T strncmp
T strncpy
T strndup
T strnlen
T strnstr
T strpbrk
T strptime
T strrchr
T strsep
T strsignal
T strspn
T strstr
T strtod
T __strtodg
T __strtodI
T strtof
T strtofflags
T __strtoId
T __strtoIdd
T __strtoIf
T __strtoIg_D2A
T strtoimax
T __strtoIQ
T __strtoIx
T __strtoIxL
T strtok
T __strtok_r
T strtol
T strtold
T strtoll
T strtonum
T __strtopd
T __strtopdd
T __strtopf
T __strtopQ
T __strtopx
T __strtopxL
T strtoq
T __strtord
T __strtordd
T __strtorf
T __strtorQ
T __strtorx
T __strtorxL
T strtoul
T strtoull
T strtoumax
T strtouq
T strunvis
T strunvisx
T strvis
T strvisx
T strxfrm
T __sum_D2A
T __svfscanf
T swab
T __swapcontext
T __swbuf
T __swhatbuf
T swprintf
T _swrite
T __swrite
T swscanf
T __swsetup
T symlink
T sysconf
T sysctl
T __sysctl
T sysctlbyname
T sysctlnametomib
T syslog
T __system
T __tcdrain
T tcflow
T tcflush
T tcgetattr
T tcgetpgrp
T tcgetsid
T tcsendbreak
T tcsetattr
T tcsetpgrp
T tcsetsid
T tdelete
T telldir
T tempnam
T tfind
T _thread_init_stub
T time
T time2posix
T _time32_to_time
T _time64_to_time
T timegm
T __time_load_locale
T timelocal
T timeoff
T times
T _time_to_int
T _time_to_long
T _time_to_time32
T _time_to_time64
T timezone
T tmpfile
T tmpnam
T toascii
T tolower
T __tolower
T ___tolower
T toupper
T __toupper
T ___toupper
T towctrans
T towlower
T towupper
T __trailz_D2A
T tsearch
T ttyname
T ttyname_r
T ttyslot
T twalk
T tzset
T tzsetwall
T _tztab
T ualarm
T ulimit
T __ulp_D2A
T __ULtod_D2A
T __ULtodd_D2A
T __ULtof_D2A
T __ULtoQ_D2A
T __ULtox_D2A
T __ULtoxL_D2A
T uname
T ungetc
T __ungetc
T ungetwc
T __ungetwc
T unlink
T unlockpt
T unsetenv
T unvis
T user_from_uid
T __usleep
T _UTF8_init
T utime
T vasprintf
T vdprintf
T verr
T verrc
T verrx
T vfprintf
T __vfprintf
T __vfscanf
T vfwprintf
T __vfwprintf
T vfwscanf
T __vfwscanf
T vis
T vprintf
T vscanf
T vsnprintf
T vsprintf
T vsscanf
T vswprintf
T vswscanf
T vsyslog
T vwarn
T vwarnc
T vwarnx
T vwprintf
T vwscanf
T __wait
T wait3
T __waitpid
T _warn
T warnc
T warnx
T wcpcpy
T wcpncpy
T wcrtomb
T wcscasecmp
T wcscat
T wcschr
T wcscmp
T wcscoll
T wcscpy
T wcscspn
T wcsdup
T wcsftime
T wcslcat
T wcslcpy
T wcslen
T wcsncasecmp
T wcsncat
T wcsncmp
T wcsncpy
T wcsnlen
T wcsnrtombs
T __wcsnrtombs_std
T wcspbrk
T wcsrchr
T wcsrtombs
T wcsspn
T wcsstr
T wcstod
T wcstof
T wcstoimax
T wcstok
T wcstol
T wcstold
T wcstoll
T wcstombs
T wcstoul
T wcstoull
T wcstoumax
T wcswidth
T wcsxfrm
T wctob
T wctomb
T wctrans
T wctype
T wcwidth
T __wcwidth
T wmemchr
T wmemcmp
T wmemcpy
T wmemmove
T wmemset
T wordexp
T wordfree
T wprintf
T __wrap_setrunelocale
T write
T _write
T writev
T _writev
T wscanf
T xsi_sigpause
T __xuname
T __xvprintf
T _Z13init_libc_vfsv
T _ZN3Vfs26global_file_system_factoryEv
T _ZN4Libc10Vfs_plugin13getdirentriesEPNS_15File_descriptorEPcjPx
T _ZN4Libc10Vfs_plugin4dup2EPNS_15File_descriptorES2_
T _ZN4Libc10Vfs_plugin4mmapEPvjiiPNS_15File_descriptorEx
T _ZN4Libc10Vfs_plugin4openEPKcii
T _ZN4Libc10Vfs_plugin4readEPNS_15File_descriptorEPvj
T _ZN4Libc10Vfs_plugin4statEPKcP4stat
T _ZN4Libc10Vfs_plugin5closeEPNS_15File_descriptorE
T _ZN4Libc10Vfs_plugin5fcntlEPNS_15File_descriptorEil
T _ZN4Libc10Vfs_plugin5fstatEPNS_15File_descriptorEP4stat
T _ZN4Libc10Vfs_plugin5fsyncEPNS_15File_descriptorE
T _ZN4Libc10Vfs_plugin5ioctlEPNS_15File_descriptorEiPc
T _ZN4Libc10Vfs_plugin5lseekEPNS_15File_descriptorExi
T _ZN4Libc10Vfs_plugin5mkdirEPKct
T _ZN4Libc10Vfs_plugin5rmdirEPKc
T _ZN4Libc10Vfs_plugin5writeEPNS_15File_descriptorEPKvj
T _ZN4Libc10Vfs_plugin6accessEPKci
T _ZN4Libc10Vfs_plugin6munmapEPvj
T _ZN4Libc10Vfs_plugin6renameEPKcS2_
T _ZN4Libc10Vfs_plugin6unlinkEPKc
T _ZN4Libc10Vfs_plugin7fstatfsEPNS_15File_descriptorEP6statfs
T _ZN4Libc10Vfs_plugin7symlinkEPKcS2_
T _ZN4Libc10Vfs_plugin8readlinkEPKcPcj
T _ZN4Libc10Vfs_plugin9ftruncateEPNS_15File_descriptorEx
T _ZN4Libc13mmap_registryEv
T _ZN4Libc14Mem_alloc_impl14Dataspace_pool6expandEjPN6Genode15Range_allocatorE
T _ZN4Libc14Mem_alloc_impl14Dataspace_poolD1Ev
T _ZN4Libc14Mem_alloc_impl14Dataspace_poolD2Ev
T _ZN4Libc14Mem_alloc_impl4freeEPv
T _ZN4Libc14Mem_alloc_impl5allocEjj
T _ZN4Libc15Plugin_registry19get_plugin_for_openEPKci
T _ZN4Libc15Plugin_registry19get_plugin_for_pipeEv
T _ZN4Libc15Plugin_registry19get_plugin_for_statEPKcP4stat
T _ZN4Libc15Plugin_registry20get_plugin_for_mkdirEPKct
T _ZN4Libc15Plugin_registry20get_plugin_for_rmdirEPKc
T _ZN4Libc15Plugin_registry21get_plugin_for_accessEPKci
T _ZN4Libc15Plugin_registry21get_plugin_for_execveEPKcPKPcS5_
T _ZN4Libc15Plugin_registry21get_plugin_for_renameEPKcS2_
T _ZN4Libc15Plugin_registry21get_plugin_for_socketEiii
T _ZN4Libc15Plugin_registry21get_plugin_for_unlinkEPKc
T _ZN4Libc15Plugin_registry22get_plugin_for_symlinkEPKcS2_
T _ZN4Libc15Plugin_registry23get_plugin_for_readlinkEPKcPcj
T _ZN4Libc15Plugin_registry26get_plugin_for_getaddrinfoEPKcS2_PK8addrinfoPPS3_
T _ZN4Libc15Plugin_registry27get_plugin_for_freeaddrinfoEP8addrinfo
T _ZN4Libc15plugin_registryEv
T _ZN4Libc16schedule_suspendEPFvvE
T _ZN4Libc24call_component_constructERN6Genode3EnvE
T _ZN4Libc25File_descriptor_allocator15find_by_libc_fdEi
T _ZN4Libc25File_descriptor_allocator4freeEPNS_15File_descriptorE
T _ZN4Libc25File_descriptor_allocator5allocEPNS_6PluginEPNS_14Plugin_contextEi
T _ZN4Libc25File_descriptor_allocatorC1Ev
T _ZN4Libc25File_descriptor_allocatorC2Ev
T _ZN4Libc25file_descriptor_allocatorEv
T _ZN4Libc4Task10_app_entryEPS0_
T _ZN4Libc4Task17_resumed_callbackEv
T _ZN4Libc6Plugin10getsockoptEPNS_15File_descriptorEiiPvPj
T _ZN4Libc6Plugin10setsockoptEPNS_15File_descriptorEiiPKvj
T _ZN4Libc6Plugin11getaddrinfoEPKcS2_PK8addrinfoPPS3_
T _ZN4Libc6Plugin11getpeernameEPNS_15File_descriptorEP8sockaddrPj
T _ZN4Libc6Plugin11getsocknameEPNS_15File_descriptorEP8sockaddrPj
T _ZN4Libc6Plugin12freeaddrinfoEP8addrinfo
T _ZN4Libc6Plugin13getdirentriesEPNS_15File_descriptorEPcjPx
T _ZN4Libc6Plugin13supports_mmapEv
T _ZN4Libc6Plugin13supports_openEPKci
T _ZN4Libc6Plugin13supports_pipeEv
T _ZN4Libc6Plugin13supports_statEPKc
T _ZN4Libc6Plugin14supports_mkdirEPKct
T _ZN4Libc6Plugin14supports_rmdirEPKc
T _ZN4Libc6Plugin15supports_accessEPKci
T _ZN4Libc6Plugin15supports_execveEPKcPKPcS5_
T _ZN4Libc6Plugin15supports_renameEPKcS2_
T _ZN4Libc6Plugin15supports_selectEiP6fd_setS2_S2_P7timeval
T _ZN4Libc6Plugin15supports_socketEiii
T _ZN4Libc6Plugin15supports_unlinkEPKc
T _ZN4Libc6Plugin16supports_symlinkEPKcS2_
T _ZN4Libc6Plugin17supports_readlinkEPKcPcj
T _ZN4Libc6Plugin20supports_getaddrinfoEPKcS2_PK8addrinfoPPS3_
T _ZN4Libc6Plugin21supports_freeaddrinfoEP8addrinfo
T _ZN4Libc6Plugin3dupEPNS_15File_descriptorE
T _ZN4Libc6Plugin4bindEPNS_15File_descriptorEPK8sockaddrj
T _ZN4Libc6Plugin4dup2EPNS_15File_descriptorES2_
T _ZN4Libc6Plugin4mmapEPvjiiPNS_15File_descriptorEx
T _ZN4Libc6Plugin4openEPKci
T _ZN4Libc6Plugin4pipeEPPNS_15File_descriptorE
T _ZN4Libc6Plugin4readEPNS_15File_descriptorEPvj
T _ZN4Libc6Plugin4recvEPNS_15File_descriptorEPvji
T _ZN4Libc6Plugin4sendEPNS_15File_descriptorEPKvji
T _ZN4Libc6Plugin4statEPKcP4stat
T _ZN4Libc6Plugin5closeEPNS_15File_descriptorE
T _ZN4Libc6Plugin5fcntlEPNS_15File_descriptorEil
T _ZN4Libc6Plugin5fstatEPNS_15File_descriptorEP4stat
T _ZN4Libc6Plugin5fsyncEPNS_15File_descriptorE
T _ZN4Libc6Plugin5ioctlEPNS_15File_descriptorEiPc
T _ZN4Libc6Plugin5lseekEPNS_15File_descriptorExi
T _ZN4Libc6Plugin5mkdirEPKct
T _ZN4Libc6Plugin5rmdirEPKc
T _ZN4Libc6Plugin5writeEPNS_15File_descriptorEPKvj
T _ZN4Libc6Plugin6acceptEPNS_15File_descriptorEP8sockaddrPj
T _ZN4Libc6Plugin6accessEPKci
T _ZN4Libc6Plugin6execveEPKcPKPcS5_
T _ZN4Libc6Plugin6listenEPNS_15File_descriptorEi
T _ZN4Libc6Plugin6munmapEPvj
T _ZN4Libc6Plugin6renameEPKcS2_
T _ZN4Libc6Plugin6selectEiP6fd_setS2_S2_P7timeval
T _ZN4Libc6Plugin6sendtoEPNS_15File_descriptorEPKvjiPK8sockaddrj
T _ZN4Libc6Plugin6socketEiii
T _ZN4Libc6Plugin6unlinkEPKc
T _ZN4Libc6Plugin7connectEPNS_15File_descriptorEPK8sockaddrj
T _ZN4Libc6Plugin7fstatfsEPNS_15File_descriptorEP6statfs
T _ZN4Libc6Plugin7recvmsgEPNS_15File_descriptorEP6msghdri
T _ZN4Libc6Plugin7symlinkEPKcS2_
T _ZN4Libc6Plugin8priorityEv
T _ZN4Libc6Plugin8readlinkEPKcPcj
T _ZN4Libc6Plugin8recvfromEPNS_15File_descriptorEPvjiP8sockaddrPj
T _ZN4Libc6Plugin8shutdownEPNS_15File_descriptorEi
T _ZN4Libc6Plugin9ftruncateEPNS_15File_descriptorEx
T _ZN4Libc6PluginC1Ei
T _ZN4Libc6PluginC2Ei
T _ZN4Libc6PluginD0Ev
T _ZN4Libc6PluginD1Ev
T _ZN4Libc6PluginD2Ev
T _ZN4Libc8read_rtcEv
T _ZN4Libc9mem_allocEv
T _ZN9Component10stack_sizeEv
T _ZNK4Libc14Mem_alloc_impl7size_atEPKv
U __cxa_allocate_exception
U __cxa_atexit
U __cxa_begin_catch
U __cxa_end_catch
U __cxa_guard_abort
U __cxa_guard_acquire
U __cxa_guard_release
U __cxa_pure_virtual
U __cxa_throw
U __dynamic_cast
U __gxx_personality_v0
U _Unwind_Resume
U _Z11genode_exiti
U _Z13genode_atexitPFvvE
U _Z21genode___cxa_finalizePv
U _ZdlPv
U _ZdlPvPN6Genode11DeallocatorE
U _ZdlPvRN6Genode11DeallocatorE
U _ZN6Genode10Entrypoint16schedule_suspendEPFvvES2_
U _ZN6Genode12Address_infoC1Em
U _ZN6Genode13Avl_node_base6insertEPS0_RNS0_6PolicyE
U _ZN6Genode13Avl_node_base6removeERNS0_6PolicyE
U _ZN6Genode13Avl_node_baseC2Ev
U _ZN6Genode13Shared_objectC1EPKcj
U _ZN6Genode13Shared_objectD1Ev
U _ZN6Genode14Rpc_entrypoint7_manageEPNS_15Rpc_object_baseE
U _ZN6Genode14Rpc_entrypoint9_dissolveEPNS_15Rpc_object_baseE
U _ZN6Genode14Signal_contextD1Ev
U _ZN6Genode14Timeout_thread11alarm_timerEv
U _ZN6Genode15Alarm_scheduler17schedule_absoluteEPNS_5AlarmEm
U _ZN6Genode15Alarm_scheduler7discardEPNS_5AlarmE
U _ZN6Genode15Cancelable_lock4lockEv
U _ZN6Genode15Cancelable_lock6unlockEv
U _ZN6Genode15Cancelable_lockC2ENS0_5StateE
U _ZN6Genode15Signal_receiver15wait_for_signalEv
U _ZN6Genode15Signal_receiver6manageEPNS_14Signal_contextE
U _ZN6Genode15Signal_receiver8dissolveEPNS_14Signal_contextE
U _ZN6Genode15Signal_receiverC1Ev
U _ZN6Genode15Signal_receiverD1Ev
U _ZN6Genode18Allocator_avl_base10alloc_addrEjm
U _ZN6Genode18Allocator_avl_base12remove_rangeEmj
U _ZN6Genode18Allocator_avl_base13alloc_alignedEjPPvimm
U _ZN6Genode18Allocator_avl_base30_revert_allocations_and_rangesEv
U _ZN6Genode18Allocator_avl_base4freeEPv
U _ZN6Genode18Allocator_avl_base5Block15find_by_addressEmjb
U _ZN6Genode18Allocator_avl_base5Block9recomputeEv
U _ZN6Genode18Allocator_avl_base9add_rangeEmj
U _ZN6Genode18Signal_transmitter6submitEj
U _ZN6Genode18Signal_transmitter7contextENS_10CapabilityINS_14Signal_contextEEE
U _ZN6Genode18Signal_transmitterC1ENS_10CapabilityINS_14Signal_contextEEE
U _ZN6Genode24call_component_constructE
U _ZN6Genode3envEv
U _ZN6Genode4Slab5allocEjPPv
U _ZN6Genode4Slab5_freeEPv
U _ZN6Genode4SlabC2EjjPvPNS_9AllocatorE
U _ZN6Genode4SlabD2Ev
U _ZN6Genode5AlarmD2Ev
U _ZN6Genode5Trace6Logger17_evaluate_controlEv
U _ZN6Genode6Config8xml_nodeEv
U _ZN6Genode6configEv
U _ZN6Genode6printfEPKcz
U _ZN6Genode6SignalD1Ev
U _ZN6Genode6Thread21alloc_secondary_stackEPKcj
U _ZN6Genode6Thread6myselfEv
U _ZN6Genode6Thread7_loggerEv
U _ZN6Genode7Console11_out_stringEPKc
U _ZN6Genode7Console7vprintfEPKcPc
U _ZN6Genode7vprintfEPKcPc
U _ZN6Genode8ipc_callENS_21Native_capability_tplINS_14Cap_dst_policyEEERNS_11Msgbuf_baseES4_j
U _ZnajPN6Genode9AllocatorE
U _ZNK6Genode13Shared_object7_lookupEPKc
U _ZNK6Genode18Allocator_avl_base10valid_addrEm
U _ZNK6Genode18Allocator_avl_base5availEv
U _ZNK6Genode18Allocator_avl_base7size_atEPKv
U _ZNK6Genode4Slab8consumedEv
U _ZNK6Genode6Thread4nameEv
U _ZnwjPN6Genode9AllocatorE
U _ZnwjRN6Genode9AllocatorE
U _ZSt9terminatev
U _ZTIN6Genode18Allocator_avl_baseE
U _ZTIN6Genode4SlabE
U _ZTIN6Genode5AlarmE
U _ZTIN6Genode7ConsoleE
U _ZTVN10__cxxabiv117__class_type_infoE
U _ZTVN10__cxxabiv120__si_class_type_infoE
U _ZTVN10__cxxabiv121__vmi_class_type_infoE
U _ZTVN6Genode14Signal_contextE
U _ZTVN6Genode18Allocator_avl_baseE
U _ZTVN6Genode5AlarmE
V libc_select_notify
V _thread_autoinit_dummy_decl
V _ZGVZN11File_system11Chunk_indexILj128ENS_5ChunkILj4096EEEE11_zero_chunkEvE10zero_chunk
V _ZGVZN11File_system11Chunk_indexILj64ENS0_ILj128ENS_5ChunkILj4096EEEEEE11_zero_chunkEvE10zero_chunk
V _ZGVZN11File_system11Chunk_indexILj64ENS0_ILj64ENS0_ILj128ENS_5ChunkILj4096EEEEEEEE11_zero_chunkEvE10zero_chunk
V _ZTI11Task_resume
V _ZTI21Symlink_resolve_error
V _ZTI27Default_file_system_factory
V _ZTI6Malloc
V _ZTIN11File_system10Chunk_base18Index_out_of_rangeE
V _ZTIN11File_system10ConnectionE
V _ZTIN11File_system12Invalid_nameE
V _ZTIN11File_system13Lookup_failedE
V _ZTIN11File_system13Name_too_longE
V _ZTIN11File_system14Invalid_handleE
V _ZTIN11File_system14Session_clientE
V _ZTIN11File_system15Connection_baseE
V _ZTIN11File_system15Out_of_metadataE
V _ZTIN11File_system17Permission_deniedE
V _ZTIN11File_system19Node_already_existsE
V _ZTIN11File_system7SessionE
V _ZTIN11File_system8No_spaceE
V _ZTIN11File_system9ExceptionE
V _ZTIN11File_system9Not_emptyE
V _ZTIN16Packet_stream_tx6ClientINS_7ChannelIN6Genode20Packet_stream_policyIN11File_system17Packet_descriptorELj16ELj16EcEEEEEE
V _ZTIN16Packet_stream_tx6ClientINS_7ChannelIN6Genode20Packet_stream_policyIN5Block17Packet_descriptorELj256ELj256EcEEEEEE
V _ZTIN16Packet_stream_tx7ChannelIN6Genode20Packet_stream_policyIN11File_system17Packet_descriptorELj16ELj16EcEEEE
V _ZTIN16Packet_stream_tx7ChannelIN6Genode20Packet_stream_policyIN5Block17Packet_descriptorELj256ELj256EcEEEE
V _ZTIN27Default_file_system_factory10Entry_baseE
V _ZTIN27Default_file_system_factory13Builtin_entryIN3Vfs14Fs_file_systemEEE
V _ZTIN27Default_file_system_factory13Builtin_entryIN3Vfs15Log_file_systemEEE
V _ZTIN27Default_file_system_factory13Builtin_entryIN3Vfs15Ram_file_systemEEE
V _ZTIN27Default_file_system_factory13Builtin_entryIN3Vfs15Rom_file_systemEEE
V _ZTIN27Default_file_system_factory13Builtin_entryIN3Vfs15Rtc_file_systemEEE
V _ZTIN27Default_file_system_factory13Builtin_entryIN3Vfs15Tar_file_systemEEE
V _ZTIN27Default_file_system_factory13Builtin_entryIN3Vfs16Null_file_systemEEE
V _ZTIN27Default_file_system_factory13Builtin_entryIN3Vfs16Zero_file_systemEEE
V _ZTIN27Default_file_system_factory13Builtin_entryIN3Vfs17Block_file_systemEEE
V _ZTIN27Default_file_system_factory13Builtin_entryIN3Vfs18Inline_file_systemEEE
V _ZTIN27Default_file_system_factory13Builtin_entryIN3Vfs19Symlink_file_systemEEE
V _ZTIN27Default_file_system_factory13Builtin_entryIN3Vfs20Terminal_file_systemEEE
V _ZTIN27Default_file_system_factory14External_entryE
V _ZTIN27Default_file_system_factory21Factory_not_availableE
V _ZTIN3Rtc10ConnectionE
V _ZTIN3Rtc14Session_clientE
V _ZTIN3Rtc7SessionE
V _ZTIN3Vfs10Vfs_handleE
V _ZTIN3Vfs11File_systemE
V _ZTIN3Vfs14Fs_file_system13Fs_vfs_handleE
V _ZTIN3Vfs14Fs_file_systemE
V _ZTIN3Vfs15Dir_file_systemE
V _ZTIN3Vfs15File_io_serviceE
V _ZTIN3Vfs15Log_file_systemE
V _ZTIN3Vfs15Ram_file_system14Ram_vfs_handleE
V _ZTIN3Vfs15Ram_file_systemE
V _ZTIN3Vfs15Rom_file_systemE
V _ZTIN3Vfs15Rtc_file_systemE
V _ZTIN3Vfs15Tar_file_system14Tar_vfs_handleE
V _ZTIN3Vfs15Tar_file_systemE
V _ZTIN3Vfs16Null_file_systemE
V _ZTIN3Vfs16Zero_file_systemE
V _ZTIN3Vfs17Block_file_systemE
V _ZTIN3Vfs17Directory_serviceE
V _ZTIN3Vfs18Inline_file_systemE
V _ZTIN3Vfs18Single_file_systemE
V _ZTIN3Vfs19File_system_factoryE
V _ZTIN3Vfs19Symlink_file_systemE
V _ZTIN3Vfs20Terminal_file_systemE
V _ZTIN3Vfs26Global_file_system_factoryE
V _ZTIN4Libc10Vfs_pluginE
V _ZTIN4Libc14Mem_alloc_implE
V _ZTIN4Libc25File_descriptor_allocatorE
V _ZTIN4Libc4TaskE
V _ZTIN4Libc6PluginE
V _ZTIN4Libc9Mem_allocE
V _ZTIN5Block10ConnectionE
V _ZTIN5Block14Session_clientE
V _ZTIN5Block7SessionE
V _ZTIN6Genode10CapabilityIN11File_system7SessionEEE
V _ZTIN6Genode10CapabilityIN16Packet_stream_tx7ChannelINS_20Packet_stream_policyIN11File_system17Packet_descriptorELj16ELj16EcEEEEEE
V _ZTIN6Genode10CapabilityIN16Packet_stream_tx7ChannelINS_20Packet_stream_policyIN5Block17Packet_descriptorELj256ELj256EcEEEEEE
V _ZTIN6Genode10CapabilityIN3Rtc7SessionEEE
V _ZTIN6Genode10CapabilityIN5Block7SessionEEE
V _ZTIN6Genode10CapabilityIN8Terminal7SessionEEE
V _ZTIN6Genode10CapabilityINS_11Log_sessionEEE
V _ZTIN6Genode10CapabilityINS_11Rom_sessionEEE
V _ZTIN6Genode10CapabilityINS_9DataspaceEEE
V _ZTIN6Genode10ConnectionIN11File_system7SessionEEE
V _ZTIN6Genode10ConnectionIN3Rtc7SessionEEE
V _ZTIN6Genode10ConnectionIN5Block7SessionEEE
V _ZTIN6Genode10ConnectionIN8Terminal7SessionEEE
V _ZTIN6Genode10ConnectionINS_11Log_sessionEEE
V _ZTIN6Genode10ConnectionINS_11Rom_sessionEEE
V _ZTIN6Genode10Region_map13Attach_failedE
V _ZTIN6Genode10Rpc_clientIN11File_system7SessionEEE
V _ZTIN6Genode10Rpc_clientIN16Packet_stream_tx7ChannelINS_20Packet_stream_policyIN11File_system17Packet_descriptorELj16ELj16EcEEEEEE
V _ZTIN6Genode10Rpc_clientIN16Packet_stream_tx7ChannelINS_20Packet_stream_policyIN5Block17Packet_descriptorELj256ELj256EcEEEEEE
V _ZTIN6Genode10Rpc_clientIN3Rtc7SessionEEE
V _ZTIN6Genode10Rpc_clientIN5Block7SessionEEE
V _ZTIN6Genode10Rpc_clientIN8Terminal7SessionEEE
V _ZTIN6Genode10Rpc_clientINS_11Log_sessionEEE
V _ZTIN6Genode10Rpc_clientINS_11Rom_sessionEEE
V _ZTIN6Genode10Rpc_clientINS_9DataspaceEEE
V _ZTIN6Genode10Rpc_objectI11Task_resumeN4Libc4TaskEEE
V _ZTIN6Genode10Slab_allocE
V _ZTIN6Genode11DeallocatorE
V _ZTIN6Genode11Log_sessionE
V _ZTIN6Genode11Msgbuf_base13Too_many_capsE
V _ZTIN6Genode11NoncopyableE
V _ZTIN6Genode11Object_poolINS_15Rpc_object_baseEE5EntryE
V _ZTIN6Genode11Ram_session12Alloc_failedE
V _ZTIN6Genode11Rom_sessionE
V _ZTIN6Genode13Avl_node_base6PolicyE
V _ZTIN6Genode13Avl_node_baseE
V _ZTIN6Genode13Shared_object12Invalid_fileE
V _ZTIN6Genode13Shared_object14Invalid_symbolE
V _ZTIN6Genode13Xml_attribute14Invalid_syntaxE
V _ZTIN6Genode13Xml_attribute21Nonexistent_attributeE
V _ZTIN6Genode14Log_connectionE
V _ZTIN6Genode14Rom_connection21Rom_connection_failedE
V _ZTIN6Genode14Rom_connectionE
V _ZTIN6Genode14Rpc_dispatcherI11Task_resumeN4Libc4TaskEEE
V _ZTIN6Genode14String_consoleE
V _ZTIN6Genode15Cancelable_lockE
V _ZTIN6Genode15Range_allocatorE
V _ZTIN6Genode15Rpc_object_baseE
V _ZTIN6Genode15Timed_semaphore7TimeoutE
V _ZTIN6Genode15Volatile_objectINS_14Rpc_entrypointEE26Deref_unconstructed_objectE
V _ZTIN6Genode15Volatile_objectINS_18Attached_dataspaceEE26Deref_unconstructed_objectE
V _ZTIN6Genode16Dataspace_clientE
V _ZTIN6Genode17Allocator_avl_tplIN4Libc15File_descriptorELj4064EEE
V _ZTIN6Genode17Allocator_avl_tplINS_5EmptyELj4064EEE
V _ZTIN6Genode17Blocking_canceledE
V _ZTIN6Genode17Timeout_exceptionE
V _ZTIN6Genode18Attached_dataspace17Invalid_dataspaceE
V _ZTIN6Genode18Log_session_clientE
V _ZTIN6Genode18Packet_stream_base29Transport_dataspace_too_smallE
V _ZTIN6Genode18Rom_session_clientE
V _ZTIN6Genode20Packet_stream_sourceINS_20Packet_stream_policyIN11File_system17Packet_descriptorELj16ELj16EcEEE19Packet_alloc_failedE
V _ZTIN6Genode20Packet_stream_sourceINS_20Packet_stream_policyIN5Block17Packet_descriptorELj256ELj256EcEEE19Packet_alloc_failedE
V _ZTIN6Genode21Native_capability_tplINS_14Cap_dst_policyEEE
V _ZTIN6Genode21Nonblocking_exceptionE
V _ZTIN6Genode4ListIN27Default_file_system_factory10Entry_baseEE7ElementE
V _ZTIN6Genode4ListIN4Libc6PluginEE7ElementE
V _ZTIN6Genode4LockE
V _ZTIN6Genode5TslabINS_17Allocator_avl_tplIN4Libc15File_descriptorELj4064EE5BlockELj4064EEE
V _ZTIN6Genode5TslabINS_17Allocator_avl_tplINS_5EmptyELj4064EE5BlockELj4064EEE
V _ZTIN6Genode6Parent9ExceptionE
V _ZTIN6Genode7SessionE
V _ZTIN6Genode8Avl_nodeIN7Vfs_ram4NodeEEE
V _ZTIN6Genode8Avl_nodeINS_11Object_poolINS_15Rpc_object_baseEE5EntryEEE
V _ZTIN6Genode8Avl_treeIN7Vfs_ram4NodeEE6PolicyE
V _ZTIN6Genode8Avl_treeINS_18Allocator_avl_base5BlockEE6PolicyE
V _ZTIN6Genode8Xml_node20Nonexistent_sub_nodeE
V _ZTIN6Genode9Allocator13Out_of_memoryE
V _ZTIN6Genode9AllocatorE
V _ZTIN6Genode9DataspaceE
V _ZTIN6Genode9ExceptionE
V _ZTIN6Genode9Ipc_errorE
V _ZTIN6Genode9Path_base13Path_too_longE
V _ZTIN7Vfs_ram4FileE
V _ZTIN7Vfs_ram4NodeE
V _ZTIN7Vfs_ram7SymlinkE
V _ZTIN7Vfs_ram9DirectoryE
V _ZTIN8Terminal10ConnectionE
V _ZTIN8Terminal14Session_clientE
V _ZTIN8Terminal7SessionE
V _ZTS11Task_resume
V _ZTS21Symlink_resolve_error
V _ZTS27Default_file_system_factory
V _ZTS6Malloc
V _ZTSN11File_system10Chunk_base18Index_out_of_rangeE
V _ZTSN11File_system10ConnectionE
V _ZTSN11File_system12Invalid_nameE
V _ZTSN11File_system13Lookup_failedE
V _ZTSN11File_system13Name_too_longE
V _ZTSN11File_system14Invalid_handleE
V _ZTSN11File_system14Session_clientE
V _ZTSN11File_system15Connection_baseE
V _ZTSN11File_system15Out_of_metadataE
V _ZTSN11File_system17Permission_deniedE
V _ZTSN11File_system19Node_already_existsE
V _ZTSN11File_system7SessionE
V _ZTSN11File_system8No_spaceE
V _ZTSN11File_system9ExceptionE
V _ZTSN11File_system9Not_emptyE
V _ZTSN16Packet_stream_tx6ClientINS_7ChannelIN6Genode20Packet_stream_policyIN11File_system17Packet_descriptorELj16ELj16EcEEEEEE
V _ZTSN16Packet_stream_tx6ClientINS_7ChannelIN6Genode20Packet_stream_policyIN5Block17Packet_descriptorELj256ELj256EcEEEEEE
V _ZTSN16Packet_stream_tx7ChannelIN6Genode20Packet_stream_policyIN11File_system17Packet_descriptorELj16ELj16EcEEEE
V _ZTSN16Packet_stream_tx7ChannelIN6Genode20Packet_stream_policyIN5Block17Packet_descriptorELj256ELj256EcEEEE
V _ZTSN27Default_file_system_factory10Entry_baseE
V _ZTSN27Default_file_system_factory13Builtin_entryIN3Vfs14Fs_file_systemEEE
V _ZTSN27Default_file_system_factory13Builtin_entryIN3Vfs15Log_file_systemEEE
V _ZTSN27Default_file_system_factory13Builtin_entryIN3Vfs15Ram_file_systemEEE
V _ZTSN27Default_file_system_factory13Builtin_entryIN3Vfs15Rom_file_systemEEE
V _ZTSN27Default_file_system_factory13Builtin_entryIN3Vfs15Rtc_file_systemEEE
V _ZTSN27Default_file_system_factory13Builtin_entryIN3Vfs15Tar_file_systemEEE
V _ZTSN27Default_file_system_factory13Builtin_entryIN3Vfs16Null_file_systemEEE
V _ZTSN27Default_file_system_factory13Builtin_entryIN3Vfs16Zero_file_systemEEE
V _ZTSN27Default_file_system_factory13Builtin_entryIN3Vfs17Block_file_systemEEE
V _ZTSN27Default_file_system_factory13Builtin_entryIN3Vfs18Inline_file_systemEEE
V _ZTSN27Default_file_system_factory13Builtin_entryIN3Vfs19Symlink_file_systemEEE
V _ZTSN27Default_file_system_factory13Builtin_entryIN3Vfs20Terminal_file_systemEEE
V _ZTSN27Default_file_system_factory14External_entryE
V _ZTSN27Default_file_system_factory21Factory_not_availableE
V _ZTSN3Rtc10ConnectionE
V _ZTSN3Rtc14Session_clientE
V _ZTSN3Rtc7SessionE
V _ZTSN3Vfs10Vfs_handleE
V _ZTSN3Vfs11File_systemE
V _ZTSN3Vfs14Fs_file_system13Fs_vfs_handleE
V _ZTSN3Vfs14Fs_file_systemE
V _ZTSN3Vfs15Dir_file_systemE
V _ZTSN3Vfs15File_io_serviceE
V _ZTSN3Vfs15Log_file_systemE
V _ZTSN3Vfs15Ram_file_system14Ram_vfs_handleE
V _ZTSN3Vfs15Ram_file_systemE
V _ZTSN3Vfs15Rom_file_systemE
V _ZTSN3Vfs15Rtc_file_systemE
V _ZTSN3Vfs15Tar_file_system14Tar_vfs_handleE
V _ZTSN3Vfs15Tar_file_systemE
V _ZTSN3Vfs16Null_file_systemE
V _ZTSN3Vfs16Zero_file_systemE
V _ZTSN3Vfs17Block_file_systemE
V _ZTSN3Vfs17Directory_serviceE
V _ZTSN3Vfs18Inline_file_systemE
V _ZTSN3Vfs18Single_file_systemE
V _ZTSN3Vfs19File_system_factoryE
V _ZTSN3Vfs19Symlink_file_systemE
V _ZTSN3Vfs20Terminal_file_systemE
V _ZTSN3Vfs26Global_file_system_factoryE
V _ZTSN4Libc10Vfs_pluginE
V _ZTSN4Libc14Mem_alloc_implE
V _ZTSN4Libc25File_descriptor_allocatorE
V _ZTSN4Libc4TaskE
V _ZTSN4Libc6PluginE
V _ZTSN4Libc9Mem_allocE
V _ZTSN5Block10ConnectionE
V _ZTSN5Block14Session_clientE
V _ZTSN5Block7SessionE
V _ZTSN6Genode10CapabilityIN11File_system7SessionEEE
V _ZTSN6Genode10CapabilityIN16Packet_stream_tx7ChannelINS_20Packet_stream_policyIN11File_system17Packet_descriptorELj16ELj16EcEEEEEE
V _ZTSN6Genode10CapabilityIN16Packet_stream_tx7ChannelINS_20Packet_stream_policyIN5Block17Packet_descriptorELj256ELj256EcEEEEEE
V _ZTSN6Genode10CapabilityIN3Rtc7SessionEEE
V _ZTSN6Genode10CapabilityIN5Block7SessionEEE
V _ZTSN6Genode10CapabilityIN8Terminal7SessionEEE
V _ZTSN6Genode10CapabilityINS_11Log_sessionEEE
V _ZTSN6Genode10CapabilityINS_11Rom_sessionEEE
V _ZTSN6Genode10CapabilityINS_9DataspaceEEE
V _ZTSN6Genode10ConnectionIN11File_system7SessionEEE
V _ZTSN6Genode10ConnectionIN3Rtc7SessionEEE
V _ZTSN6Genode10ConnectionIN5Block7SessionEEE
V _ZTSN6Genode10ConnectionIN8Terminal7SessionEEE
V _ZTSN6Genode10ConnectionINS_11Log_sessionEEE
V _ZTSN6Genode10ConnectionINS_11Rom_sessionEEE
V _ZTSN6Genode10Region_map13Attach_failedE
V _ZTSN6Genode10Rpc_clientIN11File_system7SessionEEE
V _ZTSN6Genode10Rpc_clientIN16Packet_stream_tx7ChannelINS_20Packet_stream_policyIN11File_system17Packet_descriptorELj16ELj16EcEEEEEE
V _ZTSN6Genode10Rpc_clientIN16Packet_stream_tx7ChannelINS_20Packet_stream_policyIN5Block17Packet_descriptorELj256ELj256EcEEEEEE
V _ZTSN6Genode10Rpc_clientIN3Rtc7SessionEEE
V _ZTSN6Genode10Rpc_clientIN5Block7SessionEEE
V _ZTSN6Genode10Rpc_clientIN8Terminal7SessionEEE
V _ZTSN6Genode10Rpc_clientINS_11Log_sessionEEE
V _ZTSN6Genode10Rpc_clientINS_11Rom_sessionEEE
V _ZTSN6Genode10Rpc_clientINS_9DataspaceEEE
V _ZTSN6Genode10Rpc_objectI11Task_resumeN4Libc4TaskEEE
V _ZTSN6Genode10Slab_allocE
V _ZTSN6Genode11DeallocatorE
V _ZTSN6Genode11Log_sessionE
V _ZTSN6Genode11Msgbuf_base13Too_many_capsE
V _ZTSN6Genode11NoncopyableE
V _ZTSN6Genode11Object_poolINS_15Rpc_object_baseEE5EntryE
V _ZTSN6Genode11Ram_session12Alloc_failedE
V _ZTSN6Genode11Rom_sessionE
V _ZTSN6Genode13Avl_node_base6PolicyE
V _ZTSN6Genode13Avl_node_baseE
V _ZTSN6Genode13Shared_object12Invalid_fileE
V _ZTSN6Genode13Shared_object14Invalid_symbolE
V _ZTSN6Genode13Xml_attribute14Invalid_syntaxE
V _ZTSN6Genode13Xml_attribute21Nonexistent_attributeE
V _ZTSN6Genode14Log_connectionE
V _ZTSN6Genode14Rom_connection21Rom_connection_failedE
V _ZTSN6Genode14Rom_connectionE
V _ZTSN6Genode14Rpc_dispatcherI11Task_resumeN4Libc4TaskEEE
V _ZTSN6Genode14String_consoleE
V _ZTSN6Genode15Cancelable_lockE
V _ZTSN6Genode15Range_allocatorE
V _ZTSN6Genode15Rpc_object_baseE
V _ZTSN6Genode15Timed_semaphore7TimeoutE
V _ZTSN6Genode15Volatile_objectINS_14Rpc_entrypointEE26Deref_unconstructed_objectE
V _ZTSN6Genode15Volatile_objectINS_18Attached_dataspaceEE26Deref_unconstructed_objectE
V _ZTSN6Genode16Dataspace_clientE
V _ZTSN6Genode17Allocator_avl_tplIN4Libc15File_descriptorELj4064EEE
V _ZTSN6Genode17Allocator_avl_tplINS_5EmptyELj4064EEE
V _ZTSN6Genode17Blocking_canceledE
V _ZTSN6Genode17Timeout_exceptionE
V _ZTSN6Genode18Attached_dataspace17Invalid_dataspaceE
V _ZTSN6Genode18Log_session_clientE
V _ZTSN6Genode18Packet_stream_base29Transport_dataspace_too_smallE
V _ZTSN6Genode18Rom_session_clientE
V _ZTSN6Genode20Packet_stream_sourceINS_20Packet_stream_policyIN11File_system17Packet_descriptorELj16ELj16EcEEE19Packet_alloc_failedE
V _ZTSN6Genode20Packet_stream_sourceINS_20Packet_stream_policyIN5Block17Packet_descriptorELj256ELj256EcEEE19Packet_alloc_failedE
V _ZTSN6Genode21Native_capability_tplINS_14Cap_dst_policyEEE
V _ZTSN6Genode21Nonblocking_exceptionE
V _ZTSN6Genode4ListIN27Default_file_system_factory10Entry_baseEE7ElementE
V _ZTSN6Genode4ListIN4Libc6PluginEE7ElementE
V _ZTSN6Genode4LockE
V _ZTSN6Genode5TslabINS_17Allocator_avl_tplIN4Libc15File_descriptorELj4064EE5BlockELj4064EEE
V _ZTSN6Genode5TslabINS_17Allocator_avl_tplINS_5EmptyELj4064EE5BlockELj4064EEE
V _ZTSN6Genode6Parent9ExceptionE
V _ZTSN6Genode7SessionE
V _ZTSN6Genode8Avl_nodeIN7Vfs_ram4NodeEEE
V _ZTSN6Genode8Avl_nodeINS_11Object_poolINS_15Rpc_object_baseEE5EntryEEE
V _ZTSN6Genode8Avl_treeIN7Vfs_ram4NodeEE6PolicyE
V _ZTSN6Genode8Avl_treeINS_18Allocator_avl_base5BlockEE6PolicyE
V _ZTSN6Genode8Xml_node20Nonexistent_sub_nodeE
V _ZTSN6Genode9Allocator13Out_of_memoryE
V _ZTSN6Genode9AllocatorE
V _ZTSN6Genode9DataspaceE
V _ZTSN6Genode9ExceptionE
V _ZTSN6Genode9Ipc_errorE
V _ZTSN6Genode9Path_base13Path_too_longE
V _ZTSN7Vfs_ram4FileE
V _ZTSN7Vfs_ram4NodeE
V _ZTSN7Vfs_ram7SymlinkE
V _ZTSN7Vfs_ram9DirectoryE
V _ZTSN8Terminal10ConnectionE
V _ZTSN8Terminal14Session_clientE
V _ZTSN8Terminal7SessionE
V _ZTV27Default_file_system_factory
V _ZTV6Malloc
V _ZTVN11File_system10ConnectionE
V _ZTVN11File_system14Session_clientE
V _ZTVN11File_system15Connection_baseE
V _ZTVN11File_system7SessionE
V _ZTVN16Packet_stream_tx6ClientINS_7ChannelIN6Genode20Packet_stream_policyIN11File_system17Packet_descriptorELj16ELj16EcEEEEEE
V _ZTVN16Packet_stream_tx6ClientINS_7ChannelIN6Genode20Packet_stream_policyIN5Block17Packet_descriptorELj256ELj256EcEEEEEE
V _ZTVN16Packet_stream_tx7ChannelIN6Genode20Packet_stream_policyIN11File_system17Packet_descriptorELj16ELj16EcEEEE
V _ZTVN16Packet_stream_tx7ChannelIN6Genode20Packet_stream_policyIN5Block17Packet_descriptorELj256ELj256EcEEEE
V _ZTVN27Default_file_system_factory10Entry_baseE
V _ZTVN27Default_file_system_factory13Builtin_entryIN3Vfs14Fs_file_systemEEE
V _ZTVN27Default_file_system_factory13Builtin_entryIN3Vfs15Log_file_systemEEE
V _ZTVN27Default_file_system_factory13Builtin_entryIN3Vfs15Ram_file_systemEEE
V _ZTVN27Default_file_system_factory13Builtin_entryIN3Vfs15Rom_file_systemEEE
V _ZTVN27Default_file_system_factory13Builtin_entryIN3Vfs15Rtc_file_systemEEE
V _ZTVN27Default_file_system_factory13Builtin_entryIN3Vfs15Tar_file_systemEEE
V _ZTVN27Default_file_system_factory13Builtin_entryIN3Vfs16Null_file_systemEEE
V _ZTVN27Default_file_system_factory13Builtin_entryIN3Vfs16Zero_file_systemEEE
V _ZTVN27Default_file_system_factory13Builtin_entryIN3Vfs17Block_file_systemEEE
V _ZTVN27Default_file_system_factory13Builtin_entryIN3Vfs18Inline_file_systemEEE
V _ZTVN27Default_file_system_factory13Builtin_entryIN3Vfs19Symlink_file_systemEEE
V _ZTVN27Default_file_system_factory13Builtin_entryIN3Vfs20Terminal_file_systemEEE
V _ZTVN27Default_file_system_factory14External_entryE
V _ZTVN3Rtc10ConnectionE
V _ZTVN3Rtc14Session_clientE
V _ZTVN3Rtc7SessionE
V _ZTVN3Vfs10Vfs_handleE
V _ZTVN3Vfs11File_systemE
V _ZTVN3Vfs14Fs_file_system13Fs_vfs_handleE
V _ZTVN3Vfs14Fs_file_systemE
V _ZTVN3Vfs15Dir_file_systemE
V _ZTVN3Vfs15File_io_serviceE
V _ZTVN3Vfs15Log_file_systemE
V _ZTVN3Vfs15Ram_file_system14Ram_vfs_handleE
V _ZTVN3Vfs15Ram_file_systemE
V _ZTVN3Vfs15Rom_file_systemE
V _ZTVN3Vfs15Rtc_file_systemE
V _ZTVN3Vfs15Tar_file_system14Tar_vfs_handleE
V _ZTVN3Vfs15Tar_file_systemE
V _ZTVN3Vfs16Null_file_systemE
V _ZTVN3Vfs16Zero_file_systemE
V _ZTVN3Vfs17Block_file_systemE
V _ZTVN3Vfs17Directory_serviceE
V _ZTVN3Vfs18Inline_file_systemE
V _ZTVN3Vfs18Single_file_systemE
V _ZTVN3Vfs19File_system_factoryE
V _ZTVN3Vfs19Symlink_file_systemE
V _ZTVN3Vfs20Terminal_file_systemE
V _ZTVN3Vfs26Global_file_system_factoryE
V _ZTVN4Libc10Vfs_pluginE
V _ZTVN4Libc14Mem_alloc_implE
V _ZTVN4Libc25File_descriptor_allocatorE
V _ZTVN4Libc4TaskE
V _ZTVN4Libc6PluginE
V _ZTVN4Libc9Mem_allocE
V _ZTVN5Block10ConnectionE
V _ZTVN5Block14Session_clientE
V _ZTVN5Block7SessionE
V _ZTVN6Genode10Rpc_clientIN11File_system7SessionEEE
V _ZTVN6Genode10Rpc_clientIN16Packet_stream_tx7ChannelINS_20Packet_stream_policyIN11File_system17Packet_descriptorELj16ELj16EcEEEEEE
V _ZTVN6Genode10Rpc_clientIN16Packet_stream_tx7ChannelINS_20Packet_stream_policyIN5Block17Packet_descriptorELj256ELj256EcEEEEEE
V _ZTVN6Genode10Rpc_clientIN3Rtc7SessionEEE
V _ZTVN6Genode10Rpc_clientIN5Block7SessionEEE
V _ZTVN6Genode10Rpc_clientIN8Terminal7SessionEEE
V _ZTVN6Genode10Rpc_clientINS_11Log_sessionEEE
V _ZTVN6Genode10Rpc_clientINS_11Rom_sessionEEE
V _ZTVN6Genode10Rpc_clientINS_9DataspaceEEE
V _ZTVN6Genode10Rpc_objectI11Task_resumeN4Libc4TaskEEE
V _ZTVN6Genode10Slab_allocE
V _ZTVN6Genode11DeallocatorE
V _ZTVN6Genode11Log_sessionE
V _ZTVN6Genode11Object_poolINS_15Rpc_object_baseEE5EntryE
V _ZTVN6Genode11Rom_sessionE
V _ZTVN6Genode13Avl_node_base6PolicyE
V _ZTVN6Genode14Log_connectionE
V _ZTVN6Genode14Rom_connectionE
V _ZTVN6Genode14String_consoleE
V _ZTVN6Genode15Range_allocatorE
V _ZTVN6Genode15Rpc_object_baseE
V _ZTVN6Genode15Timed_semaphore7TimeoutE
V _ZTVN6Genode16Dataspace_clientE
V _ZTVN6Genode17Allocator_avl_tplIN4Libc15File_descriptorELj4064EEE
V _ZTVN6Genode17Allocator_avl_tplINS_5EmptyELj4064EEE
V _ZTVN6Genode18Log_session_clientE
V _ZTVN6Genode18Rom_session_clientE
V _ZTVN6Genode5TslabINS_17Allocator_avl_tplIN4Libc15File_descriptorELj4064EE5BlockELj4064EEE
V _ZTVN6Genode5TslabINS_17Allocator_avl_tplINS_5EmptyELj4064EE5BlockELj4064EEE
V _ZTVN6Genode8Avl_treeIN7Vfs_ram4NodeEE6PolicyE
V _ZTVN6Genode8Avl_treeINS_18Allocator_avl_base5BlockEE6PolicyE
V _ZTVN6Genode9AllocatorE
V _ZTVN6Genode9DataspaceE
V _ZTVN7Vfs_ram4FileE
V _ZTVN7Vfs_ram4NodeE
V _ZTVN7Vfs_ram7SymlinkE
V _ZTVN7Vfs_ram9DirectoryE
V _ZTVN8Terminal10ConnectionE
V _ZTVN8Terminal14Session_clientE
V _ZTVN8Terminal7SessionE
V _ZZN11File_system11Chunk_indexILj128ENS_5ChunkILj4096EEEE11_zero_chunkEvE10zero_chunk
V _ZZN11File_system11Chunk_indexILj64ENS0_ILj128ENS_5ChunkILj4096EEEEEE11_zero_chunkEvE10zero_chunk
V _ZZN11File_system11Chunk_indexILj64ENS0_ILj64ENS0_ILj128ENS_5ChunkILj4096EEEEEEEE11_zero_chunkEvE10zero_chunk
V _ZZN7Vfs_ram4Node13_unique_inodeEvE11inode_count
W _atomic_lock
W chmod
W chown
W chroot
W clock_gettime
W creat
W _creat
W crypt
W dbopen
W __default_hash
W dl_iterate_phdr
W dllockinit
W endpwent
W err
W fchmod
W fchown
W fcloseall
W flock
W flockfile
W _flockfile_debug
W fmtcheck
W fork
W fpathconf
W _fpathconf
W freebsd7___semctl
W ftrylockfile
W funlockfile
W getcontext
W getdtablesize
W getegid
W geteuid
W getfsstat
W getgid
W getgroups
W gethostbyname
W _getlogin
W getnameinfo
W getpgrp
W getpid
W getppid
W getpriority
W getprogname
W getpwent
W getpwnam
W getpwuid
W getpwuid_r
W getrlimit
W getrusage
W getservbyname
W getsid
W gettimeofday
W getuid
W inet_addr
W inet_aton
W inet_lnaof
W inet_makeaddr
W inet_neta
W inet_net_ntop
W inet_netof
W inet_net_pton
W inet_network
W inet_nsap_addr
W inet_nsap_ntoa
W inet_ntoa
W inet_ntoa_r
W inet_ntop
W inet_pton
W isinf
W isnan
W isnanf
W kill
W link
W longjmp
W _longjmp
W madvise
W makecontext
W mkfifo
W mknod
W mprotect
W ___mtctxres
W nanosleep
W _nanosleep
W __nsdefaultsrc
W _nsdispatch
W pathconf
W pause
W _pause
W poll
W pselect
W _pthread_atfork
W pthread_atfork
W _pthread_attr_destroy
W pthread_attr_destroy
W _pthread_attr_getdetachstate
W pthread_attr_getdetachstate
W _pthread_attr_getguardsize
W pthread_attr_getguardsize
W _pthread_attr_getinheritsched
W pthread_attr_getinheritsched
W _pthread_attr_getschedparam
W pthread_attr_getschedparam
W _pthread_attr_getschedpolicy
W pthread_attr_getschedpolicy
W _pthread_attr_getscope
W pthread_attr_getscope
W _pthread_attr_getstackaddr
W pthread_attr_getstackaddr
W _pthread_attr_getstacksize
W pthread_attr_getstacksize
W _pthread_attr_init
W pthread_attr_init
W _pthread_attr_setdetachstate
W pthread_attr_setdetachstate
W _pthread_attr_setguardsize
W pthread_attr_setguardsize
W _pthread_attr_setinheritsched
W pthread_attr_setinheritsched
W _pthread_attr_setschedparam
W pthread_attr_setschedparam
W _pthread_attr_setschedpolicy
W pthread_attr_setschedpolicy
W _pthread_attr_setscope
W pthread_attr_setscope
W _pthread_attr_setstackaddr
W pthread_attr_setstackaddr
W _pthread_attr_setstacksize
W pthread_attr_setstacksize
W _pthread_cleanup_pop
W pthread_cleanup_pop
W _pthread_cleanup_push
W pthread_cleanup_push
W _pthread_cond_broadcast
W pthread_cond_broadcast
W _pthread_cond_destroy
W pthread_cond_destroy
W _pthread_cond_init
W pthread_cond_init
W _pthread_cond_signal
W pthread_cond_signal
W _pthread_cond_timedwait
W pthread_cond_timedwait
W _pthread_cond_wait
W pthread_cond_wait
W pthread_create
W _pthread_detach
W pthread_detach
W _pthread_equal
W pthread_equal
W _pthread_exit
W pthread_exit
W _pthread_getspecific
W pthread_getspecific
W _pthread_join
W pthread_join
W _pthread_key_create
W pthread_key_create
W _pthread_key_delete
W pthread_key_delete
W _pthread_kill
W pthread_kill
W _pthread_main_np
W pthread_main_np
W _pthread_mutexattr_destroy
W pthread_mutexattr_destroy
W _pthread_mutexattr_init
W pthread_mutexattr_init
W _pthread_mutexattr_settype
W pthread_mutexattr_settype
W _pthread_mutex_destroy
W pthread_mutex_destroy
W _pthread_mutex_init
W pthread_mutex_init
W _pthread_mutex_lock
W pthread_mutex_lock
W _pthread_mutex_trylock
W pthread_mutex_trylock
W _pthread_mutex_unlock
W pthread_mutex_unlock
W _pthread_once
W pthread_once
W _pthread_rwlock_destroy
W pthread_rwlock_destroy
W _pthread_rwlock_init
W pthread_rwlock_init
W _pthread_rwlock_rdlock
W pthread_rwlock_rdlock
W _pthread_rwlock_tryrdlock
W pthread_rwlock_tryrdlock
W _pthread_rwlock_trywrlock
W pthread_rwlock_trywrlock
W _pthread_rwlock_unlock
W pthread_rwlock_unlock
W _pthread_rwlock_wrlock
W pthread_rwlock_wrlock
W _pthread_self
W pthread_self
W _pthread_setcancelstate
W pthread_setcancelstate
W _pthread_setcanceltype
W pthread_setcanceltype
W _pthread_setspecific
W pthread_setspecific
W _pthread_sigmask
W pthread_sigmask
W _pthread_testcancel
W pthread_testcancel
W raise
W _raise
W _rtld_allocate_tls
W _rtld_atfork_post
W _rtld_atfork_pre
W _rtld_error
W _rtld_free_tls
W _rtld_thread_init
W sbrk
W sched_setparam
W sched_setscheduler
W sched_yield
W select
W _select
W __semctl
W setcontext
W setegid
W seteuid
W setgid
W setgroups
W setitimer
W setpassent
W setpgid
W setpriority
W setpwent
W setregid
W setreuid
W setrlimit
W setsid
W setuid
W sigaction
W _sigaction
W siglongjmp
W sigprocmask
W _sigprocmask
W sigsuspend
W _sigsuspend
W sleep
W _sleep
W socketpair
W _spinlock
W _spinlock_debug
W _spinunlock
W statfs
W strtok_r
W swapcontext
W sync
W system
W _system
W tcdrain
W _tcdrain
W _thread_init
W ___tls_get_addr
W __tls_get_addr
W truncate
W umask
W usleep
W _usleep
W utimes
W vfork
W vfscanf
W wait
W _wait
W _wait4
W waitpid
W _waitpid
W warn
W _ZN11File_system10Connection11upgrade_ramEv
W _ZN11File_system10Connection3dirERKN6Genode13Rpc_in_bufferILj1024EEEb
W _ZN11File_system10Connection4fileENS_10Dir_handleERKN6Genode13Rpc_in_bufferILj256EEENS_4ModeEb
W _ZN11File_system10Connection4nodeERKN6Genode13Rpc_in_bufferILj1024EEE
W _ZN11File_system10Connection7symlinkENS_10Dir_handleERKN6Genode13Rpc_in_bufferILj256EEEb
W _ZN11File_system10ConnectionD0Ev
W _ZN11File_system10ConnectionD1Ev
W _ZN11File_system10ConnectionD2Ev
W _ZN11File_system11Chunk_indexILj128ENS_5ChunkILj4096EEEED1Ev
W _ZN11File_system11Chunk_indexILj128ENS_5ChunkILj4096EEEED2Ev
W _ZN11File_system11Chunk_indexILj64ENS0_ILj128ENS_5ChunkILj4096EEEEEED1Ev
W _ZN11File_system11Chunk_indexILj64ENS0_ILj128ENS_5ChunkILj4096EEEEEED2Ev
W _ZN11File_system14Session_client2txEv
W _ZN11File_system14Session_client3dirERKN6Genode13Rpc_in_bufferILj1024EEEb
W _ZN11File_system14Session_client4fileENS_10Dir_handleERKN6Genode13Rpc_in_bufferILj256EEENS_4ModeEb
W _ZN11File_system14Session_client4moveENS_10Dir_handleERKN6Genode13Rpc_in_bufferILj256EEES1_S6_
W _ZN11File_system14Session_client4nodeERKN6Genode13Rpc_in_bufferILj1024EEE
W _ZN11File_system14Session_client4sighENS_11Node_handleEN6Genode10CapabilityINS2_14Signal_contextEEE
W _ZN11File_system14Session_client4syncENS_11Node_handleE
W _ZN11File_system14Session_client5closeENS_11Node_handleE
W _ZN11File_system14Session_client6statusENS_11Node_handleE
W _ZN11File_system14Session_client6unlinkENS_10Dir_handleERKN6Genode13Rpc_in_bufferILj256EEE
W _ZN11File_system14Session_client7controlENS_11Node_handleENS_7ControlE
W _ZN11File_system14Session_client7symlinkENS_10Dir_handleERKN6Genode13Rpc_in_bufferILj256EEEb
W _ZN11File_system14Session_client8truncateENS_11File_handleEy
W _ZN11File_system14Session_clientD0Ev
W _ZN11File_system14Session_clientD1Ev
W _ZN11File_system14Session_clientD2Ev
W _ZN11File_system15Connection_baseD0Ev
W _ZN11File_system15Connection_baseD1Ev
W _ZN11File_system15Connection_baseD2Ev
W _ZN11File_system5ChunkILj4096EED1Ev
W _ZN11File_system5ChunkILj4096EED2Ev
W _ZN11File_system7Session2txEv
W _ZN11File_system7Session4syncENS_11Node_handleE
W _ZN16Packet_stream_tx6ClientINS_7ChannelIN6Genode20Packet_stream_policyIN11File_system17Packet_descriptorELj16ELj16EcEEEEE14sigh_ack_availENS2_10CapabilityINS2_14Signal_contextEEE
W _ZN16Packet_stream_tx6ClientINS_7ChannelIN6Genode20Packet_stream_policyIN11File_system17Packet_descriptorELj16ELj16EcEEEEE20sigh_ready_to_submitENS2_10CapabilityINS2_14Signal_contextEEE
W _ZN16Packet_stream_tx6ClientINS_7ChannelIN6Genode20Packet_stream_policyIN11File_system17Packet_descriptorELj16ELj16EcEEEEE6sourceEv
W _ZN16Packet_stream_tx6ClientINS_7ChannelIN6Genode20Packet_stream_policyIN11File_system17Packet_descriptorELj16ELj16EcEEEEEC1ENS2_10CapabilityIS7_EEPNS2_15Range_allocatorE
W _ZN16Packet_stream_tx6ClientINS_7ChannelIN6Genode20Packet_stream_policyIN11File_system17Packet_descriptorELj16ELj16EcEEEEEC2ENS2_10CapabilityIS7_EEPNS2_15Range_allocatorE
W _ZN16Packet_stream_tx6ClientINS_7ChannelIN6Genode20Packet_stream_policyIN5Block17Packet_descriptorELj256ELj256EcEEEEE14sigh_ack_availENS2_10CapabilityINS2_14Signal_contextEEE
W _ZN16Packet_stream_tx6ClientINS_7ChannelIN6Genode20Packet_stream_policyIN5Block17Packet_descriptorELj256ELj256EcEEEEE20sigh_ready_to_submitENS2_10CapabilityINS2_14Signal_contextEEE
W _ZN16Packet_stream_tx6ClientINS_7ChannelIN6Genode20Packet_stream_policyIN5Block17Packet_descriptorELj256ELj256EcEEEEE6sourceEv
W _ZN16Packet_stream_tx6ClientINS_7ChannelIN6Genode20Packet_stream_policyIN5Block17Packet_descriptorELj256ELj256EcEEEEEC1ENS2_10CapabilityIS7_EEPNS2_15Range_allocatorE
W _ZN16Packet_stream_tx6ClientINS_7ChannelIN6Genode20Packet_stream_policyIN5Block17Packet_descriptorELj256ELj256EcEEEEEC2ENS2_10CapabilityIS7_EEPNS2_15Range_allocatorE
W _ZN16Packet_stream_tx7ChannelIN6Genode20Packet_stream_policyIN11File_system17Packet_descriptorELj16ELj16EcEEE6sourceEv
W _ZN16Packet_stream_tx7ChannelIN6Genode20Packet_stream_policyIN5Block17Packet_descriptorELj256ELj256EcEEE6sourceEv
W _ZN27Default_file_system_factory11_try_createEN6Genode8Xml_nodeE
W _ZN27Default_file_system_factory13Builtin_entryIN3Vfs14Fs_file_systemEE6createEN6Genode8Xml_nodeE
W _ZN27Default_file_system_factory13Builtin_entryIN3Vfs15Log_file_systemEE6createEN6Genode8Xml_nodeE
W _ZN27Default_file_system_factory13Builtin_entryIN3Vfs15Ram_file_systemEE6createEN6Genode8Xml_nodeE
W _ZN27Default_file_system_factory13Builtin_entryIN3Vfs15Rom_file_systemEE6createEN6Genode8Xml_nodeE
W _ZN27Default_file_system_factory13Builtin_entryIN3Vfs15Rtc_file_systemEE6createEN6Genode8Xml_nodeE
W _ZN27Default_file_system_factory13Builtin_entryIN3Vfs15Tar_file_systemEE6createEN6Genode8Xml_nodeE
W _ZN27Default_file_system_factory13Builtin_entryIN3Vfs16Null_file_systemEE6createEN6Genode8Xml_nodeE
W _ZN27Default_file_system_factory13Builtin_entryIN3Vfs16Zero_file_systemEE6createEN6Genode8Xml_nodeE
W _ZN27Default_file_system_factory13Builtin_entryIN3Vfs17Block_file_systemEE6createEN6Genode8Xml_nodeE
W _ZN27Default_file_system_factory13Builtin_entryIN3Vfs18Inline_file_systemEE6createEN6Genode8Xml_nodeE
W _ZN27Default_file_system_factory13Builtin_entryIN3Vfs19Symlink_file_systemEE6createEN6Genode8Xml_nodeE
W _ZN27Default_file_system_factory13Builtin_entryIN3Vfs20Terminal_file_systemEE6createEN6Genode8Xml_nodeE
W _ZN27Default_file_system_factory13_load_factoryERKN6Genode6StringILj128EEE
W _ZN27Default_file_system_factory14External_entry6createEN6Genode8Xml_nodeE
W _ZN27Default_file_system_factory23_probe_external_factoryEN6Genode8Xml_nodeE
W _ZN27Default_file_system_factory6createEN6Genode8Xml_nodeE
W _ZN27Default_file_system_factory6extendEPKcRN3Vfs19File_system_factoryE
W _ZN3Rtc14Session_client12current_timeEv
W _ZN3Vfs10Vfs_handleD0Ev
W _ZN3Vfs10Vfs_handleD1Ev
W _ZN3Vfs10Vfs_handleD2Ev
W _ZN3Vfs11File_system4syncEPKc
W _ZN3Vfs14Fs_file_system10num_direntEPKc
W _ZN3Vfs14Fs_file_system13Fs_vfs_handleD0Ev
W _ZN3Vfs14Fs_file_system13Fs_vfs_handleD1Ev
W _ZN3Vfs14Fs_file_system13Fs_vfs_handleD2Ev
W _ZN3Vfs14Fs_file_system4openEPKcjPPNS_10Vfs_handleERN6Genode9AllocatorE
W _ZN3Vfs14Fs_file_system4readEPNS_10Vfs_handleEPcyRy
W _ZN3Vfs14Fs_file_system4statEPKcRNS_17Directory_service4StatE
W _ZN3Vfs14Fs_file_system4syncEPKc
W _ZN3Vfs14Fs_file_system5closeEPNS_10Vfs_handleE
W _ZN3Vfs14Fs_file_system5mkdirEPKcj
W _ZN3Vfs14Fs_file_system5_readEN11File_system11Node_handleEPvyy
W _ZN3Vfs14Fs_file_system5writeEPNS_10Vfs_handleEPKcyRy
W _ZN3Vfs14Fs_file_system6direntEPKcxRNS_17Directory_service6DirentE
W _ZN3Vfs14Fs_file_system6renameEPKcS2_
W _ZN3Vfs14Fs_file_system6unlinkEPKc
W _ZN3Vfs14Fs_file_system6_writeEN11File_system11Node_handleEPKcyy
W _ZN3Vfs14Fs_file_system7releaseEPKcN6Genode10CapabilityINS3_9DataspaceEEE
W _ZN3Vfs14Fs_file_system7symlinkEPKcS2_
W _ZN3Vfs14Fs_file_system8readlinkEPKcPcyRy
W _ZN3Vfs14Fs_file_system9dataspaceEPKc
W _ZN3Vfs14Fs_file_system9directoryEPKc
W _ZN3Vfs14Fs_file_system9ftruncateEPNS_10Vfs_handleEy
W _ZN3Vfs14Fs_file_system9leaf_pathEPKc
W _ZN3Vfs14Fs_file_systemC1EN6Genode8Xml_nodeE
W _ZN3Vfs14Fs_file_systemC2EN6Genode8Xml_nodeE
W _ZN3Vfs15Dir_file_system10num_direntEPKc
W _ZN3Vfs15Dir_file_system4openEPKcjPPNS_10Vfs_handleERN6Genode9AllocatorE
W _ZN3Vfs15Dir_file_system4readEPNS_10Vfs_handleEPcyRy
W _ZN3Vfs15Dir_file_system4statEPKcRNS_17Directory_service4StatE
W _ZN3Vfs15Dir_file_system4syncEPKc
W _ZN3Vfs15Dir_file_system5closeEPNS_10Vfs_handleE
W _ZN3Vfs15Dir_file_system5mkdirEPKcj
W _ZN3Vfs15Dir_file_system5writeEPNS_10Vfs_handleEPKcyRy
W _ZN3Vfs15Dir_file_system6direntEPKcxRNS_17Directory_service6DirentE
W _ZN3Vfs15Dir_file_system6renameEPKcS2_
W _ZN3Vfs15Dir_file_system6unlinkEPKc
W _ZN3Vfs15Dir_file_system7_dir_opINS_17Directory_service12Mkdir_resultEZNS0_5mkdirEPKcjEUlRNS_11File_systemES5_E_EET_S9_S9_S9_S5_RKT0_
W _ZN3Vfs15Dir_file_system7_dir_opINS_17Directory_service13Unlink_resultEZNS0_6unlinkEPKcEUlRNS_11File_systemES5_E_EET_S9_S9_S9_S5_RKT0_
W _ZN3Vfs15Dir_file_system7_dir_opINS_17Directory_service14Symlink_resultEZNS0_7symlinkEPKcS5_EUlRNS_11File_systemES5_E_EET_S9_S9_S9_S5_RKT0_
W _ZN3Vfs15Dir_file_system7_dir_opINS_17Directory_service15Readlink_resultEZNS0_8readlinkEPKcPcyRyEUlRNS_11File_systemES5_E_EET_SB_SB_SB_S5_RKT0_
W _ZN3Vfs15Dir_file_system7releaseEPKcN6Genode10CapabilityINS3_9DataspaceEEE
W _ZN3Vfs15Dir_file_system7symlinkEPKcS2_
W _ZN3Vfs15Dir_file_system8readlinkEPKcPcyRy
W _ZN3Vfs15Dir_file_system9dataspaceEPKc
W _ZN3Vfs15Dir_file_system9directoryEPKc
W _ZN3Vfs15Dir_file_system9ftruncateEPNS_10Vfs_handleEy
W _ZN3Vfs15Dir_file_system9leaf_pathEPKc
W _ZN3Vfs15Dir_file_systemC1EN6Genode8Xml_nodeERNS_19File_system_factoryE
W _ZN3Vfs15Dir_file_systemC2EN6Genode8Xml_nodeERNS_19File_system_factoryE
W _ZN3Vfs15File_io_service13check_unblockEPNS_10Vfs_handleEbbb
W _ZN3Vfs15File_io_service24register_read_ready_sighEPNS_10Vfs_handleEN6Genode10CapabilityINS3_14Signal_contextEEE
W _ZN3Vfs15File_io_service5ioctlEPNS_10Vfs_handleENS0_12Ioctl_opcodeEmRNS0_9Ioctl_outE
W _ZN3Vfs15Log_file_system4readEPNS_10Vfs_handleEPcyRy
W _ZN3Vfs15Log_file_system5writeEPNS_10Vfs_handleEPKcyRy
W _ZN3Vfs15Ram_file_system10num_direntEPKc
W _ZN3Vfs15Ram_file_system13lookup_parentEPKc
W _ZN3Vfs15Ram_file_system14Ram_vfs_handleD0Ev
W _ZN3Vfs15Ram_file_system14Ram_vfs_handleD1Ev
W _ZN3Vfs15Ram_file_system14Ram_vfs_handleD2Ev
W _ZN3Vfs15Ram_file_system4openEPKcjPPNS_10Vfs_handleERN6Genode9AllocatorE
W _ZN3Vfs15Ram_file_system4readEPNS_10Vfs_handleEPcyRy
W _ZN3Vfs15Ram_file_system4statEPKcRNS_17Directory_service4StatE
W _ZN3Vfs15Ram_file_system5closeEPNS_10Vfs_handleE
W _ZN3Vfs15Ram_file_system5mkdirEPKcj
W _ZN3Vfs15Ram_file_system5writeEPNS_10Vfs_handleEPKcyRy
W _ZN3Vfs15Ram_file_system6direntEPKcxRNS_17Directory_service6DirentE
W _ZN3Vfs15Ram_file_system6lookupEPKcb
W _ZN3Vfs15Ram_file_system6removeEPN7Vfs_ram4NodeE
W _ZN3Vfs15Ram_file_system6renameEPKcS2_
W _ZN3Vfs15Ram_file_system6unlinkEPKc
W _ZN3Vfs15Ram_file_system7releaseEPKcN6Genode10CapabilityINS3_9DataspaceEEE
W _ZN3Vfs15Ram_file_system7symlinkEPKcS2_
W _ZN3Vfs15Ram_file_system8readlinkEPKcPcyRy
W _ZN3Vfs15Ram_file_system9dataspaceEPKc
W _ZN3Vfs15Ram_file_system9directoryEPKc
W _ZN3Vfs15Ram_file_system9ftruncateEPNS_10Vfs_handleEy
W _ZN3Vfs15Ram_file_system9leaf_pathEPKc
W _ZN3Vfs15Rom_file_system4openEPKcjPPNS_10Vfs_handleERN6Genode9AllocatorE
W _ZN3Vfs15Rom_file_system4readEPNS_10Vfs_handleEPcyRy
W _ZN3Vfs15Rom_file_system4statEPKcRNS_17Directory_service4StatE
W _ZN3Vfs15Rom_file_system5writeEPNS_10Vfs_handleEPKcyRy
W _ZN3Vfs15Rom_file_system9dataspaceEPKc
W _ZN3Vfs15Rtc_file_system4readEPNS_10Vfs_handleEPcyRy
W _ZN3Vfs15Rtc_file_system4statEPKcRNS_17Directory_service4StatE
W _ZN3Vfs15Rtc_file_system5writeEPNS_10Vfs_handleEPKcyRy
W _ZN3Vfs15Tar_file_system10num_direntEPKc
W _ZN3Vfs15Tar_file_system11dereferenceEPKc
W _ZN3Vfs15Tar_file_system14Tar_vfs_handleD0Ev
W _ZN3Vfs15Tar_file_system14Tar_vfs_handleD1Ev
W _ZN3Vfs15Tar_file_system14Tar_vfs_handleD2Ev
W _ZN3Vfs15Tar_file_system15Add_node_actionclEPKNS0_6RecordE
W _ZN3Vfs15Tar_file_system4Node6lookupEPKc
W _ZN3Vfs15Tar_file_system4openEPKcjPPNS_10Vfs_handleERN6Genode9AllocatorE
W _ZN3Vfs15Tar_file_system4readEPNS_10Vfs_handleEPcyRy
W _ZN3Vfs15Tar_file_system4statEPKcRNS_17Directory_service4StatE
W _ZN3Vfs15Tar_file_system5closeEPNS_10Vfs_handleE
W _ZN3Vfs15Tar_file_system5mkdirEPKcj
W _ZN3Vfs15Tar_file_system5writeEPNS_10Vfs_handleEPKcyRy
W _ZN3Vfs15Tar_file_system6direntEPKcxRNS_17Directory_service6DirentE
W _ZN3Vfs15Tar_file_system6renameEPKcS2_
W _ZN3Vfs15Tar_file_system6unlinkEPKc
W _ZN3Vfs15Tar_file_system7releaseEPKcN6Genode10CapabilityINS3_9DataspaceEEE
W _ZN3Vfs15Tar_file_system7symlinkEPKcS2_
W _ZN3Vfs15Tar_file_system8readlinkEPKcPcyRy
W _ZN3Vfs15Tar_file_system9dataspaceEPKc
W _ZN3Vfs15Tar_file_system9directoryEPKc
W _ZN3Vfs15Tar_file_system9ftruncateEPNS_10Vfs_handleEy
W _ZN3Vfs15Tar_file_system9leaf_pathEPKc
W _ZN3Vfs16Null_file_system4readEPNS_10Vfs_handleEPcyRy
W _ZN3Vfs16Null_file_system5writeEPNS_10Vfs_handleEPKcyRy
W _ZN3Vfs16Null_file_system9ftruncateEPNS_10Vfs_handleEy
W _ZN3Vfs16Zero_file_system4readEPNS_10Vfs_handleEPcyRy
W _ZN3Vfs16Zero_file_system5writeEPNS_10Vfs_handleEPKcyRy
W _ZN3Vfs17Block_file_system4readEPNS_10Vfs_handleEPcyRy
W _ZN3Vfs17Block_file_system4statEPKcRNS_17Directory_service4StatE
W _ZN3Vfs17Block_file_system5ioctlEPNS_10Vfs_handleENS_15File_io_service12Ioctl_opcodeEmRNS3_9Ioctl_outE
W _ZN3Vfs17Block_file_system5writeEPNS_10Vfs_handleEPKcyRy
W _ZN3Vfs17Block_file_system9_block_ioEyPvybb
W _ZN3Vfs17Block_file_system9ftruncateEPNS_10Vfs_handleEy
W _ZN3Vfs17Block_file_systemC1EN6Genode8Xml_nodeE
W _ZN3Vfs17Block_file_systemC2EN6Genode8Xml_nodeE
W _ZN3Vfs18Inline_file_system4readEPNS_10Vfs_handleEPcyRy
W _ZN3Vfs18Inline_file_system4statEPKcRNS_17Directory_service4StatE
W _ZN3Vfs18Inline_file_system5writeEPNS_10Vfs_handleEPKcyRy
W _ZN3Vfs18Single_file_system10num_direntEPKc
W _ZN3Vfs18Single_file_system12_single_fileEPKc
W _ZN3Vfs18Single_file_system4openEPKcjPPNS_10Vfs_handleERN6Genode9AllocatorE
W _ZN3Vfs18Single_file_system4statEPKcRNS_17Directory_service4StatE
W _ZN3Vfs18Single_file_system5closeEPNS_10Vfs_handleE
W _ZN3Vfs18Single_file_system5mkdirEPKcj
W _ZN3Vfs18Single_file_system6direntEPKcxRNS_17Directory_service6DirentE
W _ZN3Vfs18Single_file_system6renameEPKcS2_
W _ZN3Vfs18Single_file_system6unlinkEPKc
W _ZN3Vfs18Single_file_system7releaseEPKcN6Genode10CapabilityINS3_9DataspaceEEE
W _ZN3Vfs18Single_file_system7symlinkEPKcS2_
W _ZN3Vfs18Single_file_system8readlinkEPKcPcyRy
W _ZN3Vfs18Single_file_system9dataspaceEPKc
W _ZN3Vfs18Single_file_system9directoryEPKc
W _ZN3Vfs18Single_file_system9ftruncateEPNS_10Vfs_handleEy
W _ZN3Vfs18Single_file_system9leaf_pathEPKc
W _ZN3Vfs18Single_file_systemC1ENS0_9Node_typeEPKcN6Genode8Xml_nodeE
W _ZN3Vfs18Single_file_systemC2ENS0_9Node_typeEPKcN6Genode8Xml_nodeE
W _ZN3Vfs19Symlink_file_system10num_direntEPKc
W _ZN3Vfs19Symlink_file_system12_single_fileEPKc
W _ZN3Vfs19Symlink_file_system4openEPKcjPPNS_10Vfs_handleERN6Genode9AllocatorE
W _ZN3Vfs19Symlink_file_system4readEPNS_10Vfs_handleEPcyRy
W _ZN3Vfs19Symlink_file_system4statEPKcRNS_17Directory_service4StatE
W _ZN3Vfs19Symlink_file_system5closeEPNS_10Vfs_handleE
W _ZN3Vfs19Symlink_file_system5mkdirEPKcj
W _ZN3Vfs19Symlink_file_system5writeEPNS_10Vfs_handleEPKcyRy
W _ZN3Vfs19Symlink_file_system6direntEPKcxRNS_17Directory_service6DirentE
W _ZN3Vfs19Symlink_file_system6renameEPKcS2_
W _ZN3Vfs19Symlink_file_system6unlinkEPKc
W _ZN3Vfs19Symlink_file_system7releaseEPKcN6Genode10CapabilityINS3_9DataspaceEEE
W _ZN3Vfs19Symlink_file_system7symlinkEPKcS2_
W _ZN3Vfs19Symlink_file_system8readlinkEPKcPcyRy
W _ZN3Vfs19Symlink_file_system9dataspaceEPKc
W _ZN3Vfs19Symlink_file_system9directoryEPKc
W _ZN3Vfs19Symlink_file_system9ftruncateEPNS_10Vfs_handleEy
W _ZN3Vfs19Symlink_file_system9leaf_pathEPKc
W _ZN3Vfs20Terminal_file_system13check_unblockEPNS_10Vfs_handleEbbb
W _ZN3Vfs20Terminal_file_system24register_read_ready_sighEPNS_10Vfs_handleEN6Genode10CapabilityINS3_14Signal_contextEEE
W _ZN3Vfs20Terminal_file_system4readEPNS_10Vfs_handleEPcyRy
W _ZN3Vfs20Terminal_file_system5writeEPNS_10Vfs_handleEPKcyRy
W _ZN3Vfs20Terminal_file_system9ftruncateEPNS_10Vfs_handleEy
W _ZN4Libc10config_rtcEv
W _ZN4Libc10vfs_configEv
W _ZN4Libc10Vfs_plugin13supports_mmapEv
W _ZN4Libc10Vfs_plugin13supports_openEPKci
W _ZN4Libc10Vfs_plugin13supports_statEPKc
W _ZN4Libc10Vfs_plugin14supports_mkdirEPKct
W _ZN4Libc10Vfs_plugin14supports_rmdirEPKc
W _ZN4Libc10Vfs_plugin15supports_accessEPKci
W _ZN4Libc10Vfs_plugin15supports_renameEPKcS2_
W _ZN4Libc10Vfs_plugin15supports_unlinkEPKc
W _ZN4Libc10Vfs_plugin16supports_symlinkEPKcS2_
W _ZN4Libc10Vfs_plugin17supports_readlinkEPKcPcj
W _ZN4Libc10Vfs_plugin4openEPKci
W _ZN4Libc10Vfs_pluginC1Ev
W _ZN4Libc10Vfs_pluginC2Ev
W _ZN4Libc10Vfs_pluginD0Ev
W _ZN4Libc10Vfs_pluginD1Ev
W _ZN4Libc10Vfs_pluginD2Ev
W _ZN4Libc11initial_cwdEv
W _ZN4Libc12config_stdinEv
W _ZN4Libc13config_stderrEv
W _ZN4Libc13config_stdoutEv
W _ZN4Libc14Mem_alloc_implD1Ev
W _ZN4Libc14Mem_alloc_implD2Ev
W _ZN4Libc25File_descriptor_allocatorD0Ev
W _ZN4Libc25File_descriptor_allocatorD1Ev
W _ZN4Libc25File_descriptor_allocatorD2Ev
W _ZN4Libc4Task16schedule_suspendEPFvvE
W _ZN4Libc4Task3runEv
W _ZN4Libc4Task6resumeEv
W _ZN4Libc4TaskD0Ev
W _ZN4Libc4TaskD1Ev
W _ZN4Libc4TaskD2Ev
W _ZN4Libc6configEv
W _ZN5Block10ConnectionD0Ev
W _ZN5Block10ConnectionD1Ev
W _ZN5Block10ConnectionD2Ev
W _ZN5Block14Session_client10tx_channelEv
W _ZN5Block14Session_client2txEv
W _ZN5Block14Session_client4infoEPyPjPNS_7Session10OperationsE
W _ZN5Block14Session_client4syncEv
W _ZN5Block14Session_clientD0Ev
W _ZN5Block14Session_clientD1Ev
W _ZN5Block14Session_clientD2Ev
W _ZN5Block7Session10tx_channelEv
W _ZN5Block7Session2txEv
W _ZN6Genode10ConnectionIN11File_system7SessionEE7sessionERNS_6ParentEPKcz
W _ZN6Genode10ConnectionIN3Rtc7SessionEE7sessionEPKcz
W _ZN6Genode10ConnectionIN5Block7SessionEE7sessionERNS_6ParentEPKcz
W _ZN6Genode10ConnectionIN8Terminal7SessionEE7sessionEPKcz
W _ZN6Genode10ConnectionINS_11Log_sessionEE7sessionEPKcz
W _ZN6Genode10ConnectionINS_11Rom_sessionEE7sessionERNS_6ParentEPKcz
W _ZN6Genode10Rpc_objectI11Task_resumeN4Libc4TaskEE8dispatchENS_10Rpc_opcodeERNS_16Ipc_unmarshallerERNS_11Msgbuf_baseE
W _ZN6Genode10Rpc_objectI11Task_resumeN4Libc4TaskEED0Ev
W _ZN6Genode10Rpc_objectI11Task_resumeN4Libc4TaskEED1Ev
W _ZN6Genode10Rpc_objectI11Task_resumeN4Libc4TaskEED2Ev
W _ZN6Genode10Slab_allocD0Ev
W _ZN6Genode10Slab_allocD1Ev
W _ZN6Genode10Slab_allocD2Ev
W _ZN6Genode11Msgbuf_baseC1EPcj
W _ZN6Genode11Msgbuf_baseC2EPcj
W _ZN6Genode11Object_poolINS_15Rpc_object_baseEE5Entry10Entry_lockD1Ev
W _ZN6Genode11Object_poolINS_15Rpc_object_baseEE5Entry10Entry_lockD2Ev
W _ZN6Genode11Object_poolINS_15Rpc_object_baseEE5EntryD0Ev
W _ZN6Genode11Object_poolINS_15Rpc_object_baseEE5EntryD1Ev
W _ZN6Genode11Object_poolINS_15Rpc_object_baseEE5EntryD2Ev
W _ZN6Genode11Rom_session6updateEv
W _ZN6Genode13Avl_node_base6Policy9recomputeEPS0_
W _ZN6Genode13Xml_attributeC1ENS_5TokenINS0_29Scanner_policy_xml_identifierEEE
W _ZN6Genode13Xml_attributeC2ENS_5TokenINS0_29Scanner_policy_xml_identifierEEE
W _ZN6Genode14Log_connectionD0Ev
W _ZN6Genode14Log_connectionD1Ev
W _ZN6Genode14Log_connectionD2Ev
W _ZN6Genode14Rom_connectionD0Ev
W _ZN6Genode14Rom_connectionD1Ev
W _ZN6Genode14Rom_connectionD2Ev
W _ZN6Genode14Signal_contextC1Ev
W _ZN6Genode14Signal_contextC2Ev
W _ZN6Genode14String_console9_out_charEc
W _ZN6Genode14String_consoleD0Ev
W _ZN6Genode14String_consoleD1Ev
W _ZN6Genode14String_consoleD2Ev
W _ZN6Genode15Timed_semaphore7Timeout8on_alarmEj
W _ZN6Genode15Timed_semaphore7TimeoutD0Ev
W _ZN6Genode15Timed_semaphore7TimeoutD1Ev
W _ZN6Genode15Timed_semaphore7TimeoutD2Ev
W _ZN6Genode16Dataspace_client4sizeEv
W _ZN6Genode16Dataspace_client8writableEv
W _ZN6Genode16Dataspace_client9phys_addrEv
W _ZN6Genode16Dataspace_clientD0Ev
W _ZN6Genode16Dataspace_clientD1Ev
W _ZN6Genode16Dataspace_clientD2Ev
W _ZN6Genode17Allocator_avl_tplIN4Libc15File_descriptorELj4064EE9add_rangeEmj
W _ZN6Genode17Allocator_avl_tplIN4Libc15File_descriptorELj4064EED0Ev
W _ZN6Genode17Allocator_avl_tplIN4Libc15File_descriptorELj4064EED1Ev
W _ZN6Genode17Allocator_avl_tplIN4Libc15File_descriptorELj4064EED2Ev
W _ZN6Genode17Allocator_avl_tplINS_5EmptyELj4064EE9add_rangeEmj
W _ZN6Genode17Allocator_avl_tplINS_5EmptyELj4064EED0Ev
W _ZN6Genode17Allocator_avl_tplINS_5EmptyELj4064EED1Ev
W _ZN6Genode17Allocator_avl_tplINS_5EmptyELj4064EED2Ev
W _ZN6Genode18Allocator_avl_base4freeEPvj
W _ZN6Genode18Allocator_avl_base5allocEjPPv
W _ZN6Genode18Attached_dataspaceD1Ev
W _ZN6Genode18Attached_dataspaceD2Ev
W _ZN6Genode18Log_session_client5writeERKNS_13Rpc_in_bufferILj236EEE
W _ZN6Genode18Log_session_clientD0Ev
W _ZN6Genode18Log_session_clientD1Ev
W _ZN6Genode18Log_session_clientD2Ev
W _ZN6Genode18Packet_stream_baseC1ENS_10CapabilityINS_9DataspaceEEEjj
W _ZN6Genode18Packet_stream_baseC2ENS_10CapabilityINS_9DataspaceEEEjj
W _ZN6Genode18Packet_stream_baseD1Ev
W _ZN6Genode18Packet_stream_baseD2Ev
W _ZN6Genode18Rom_session_client4sighENS_10CapabilityINS_14Signal_contextEEE
W _ZN6Genode18Rom_session_client6updateEv
W _ZN6Genode18Rom_session_client9dataspaceEv
W _ZN6Genode18Rom_session_clientD0Ev
W _ZN6Genode18Rom_session_clientD1Ev
W _ZN6Genode18Rom_session_clientD2Ev
W _ZN6Genode22Attached_rom_dataspace11_try_attachEv
W _ZN6Genode26Packet_descriptor_receiverINS_23Packet_descriptor_queueIN11File_system17Packet_descriptorELi16EEEE2rxEPS3_
W _ZN6Genode29Packet_descriptor_transmitterINS_23Packet_descriptor_queueIN11File_system17Packet_descriptorELi16EEEE2txES3_
W _ZN6Genode4Lock4lockEv
W _ZN6Genode4Slab4freeEPvj
W _ZN6Genode5digitEcb
W _ZN6Genode5retryIN11File_system15Out_of_metadataEZNS1_10Connection4nodeERKNS_13Rpc_in_bufferILj1024EEEEUlvE_ZNS3_4nodeES7_EUlvE0_EEDTclfp_EET0_T1_j
W _ZN6Genode5Trace6Logger3logINS0_12Rpc_returnedEEEvPKT_
W _ZN6Genode5Trace6Logger3logINS0_8Rpc_callEEEvPKT_
W _ZN6Genode5TslabINS_17Allocator_avl_tplIN4Libc15File_descriptorELj4064EE5BlockELj4064EED0Ev
W _ZN6Genode5TslabINS_17Allocator_avl_tplIN4Libc15File_descriptorELj4064EE5BlockELj4064EED1Ev
W _ZN6Genode5TslabINS_17Allocator_avl_tplIN4Libc15File_descriptorELj4064EE5BlockELj4064EED2Ev
W _ZN6Genode5TslabINS_17Allocator_avl_tplINS_5EmptyELj4064EE5BlockELj4064EED0Ev
W _ZN6Genode5TslabINS_17Allocator_avl_tplINS_5EmptyELj4064EE5BlockELj4064EED1Ev
W _ZN6Genode5TslabINS_17Allocator_avl_tplINS_5EmptyELj4064EE5BlockELj4064EED2Ev
W _ZN6Genode6memcpyEPvPKvj
W _ZN6Genode6StringILj128EEC1EPKcj
W _ZN6Genode6StringILj128EEC2EPKcj
W _ZN6Genode7destroyIN11File_system11Chunk_indexILj128ENS1_5ChunkILj4096EEEEEPNS_9AllocatorEEEvOT0_PT_
W _ZN6Genode7destroyIN11File_system11Chunk_indexILj64ENS2_ILj128ENS1_5ChunkILj4096EEEEEEEPNS_9AllocatorEEEvOT0_PT_
W _ZN6Genode7destroyIN7Vfs_ram4NodeERNS_9AllocatorEEEvOT0_PT_
W _ZN6Genode8ascii_toEPKcRb
W _ZN6Genode8Avl_treeIN7Vfs_ram4NodeEE6Policy9recomputeEPNS_13Avl_node_baseE
W _ZN6Genode8Avl_treeIN7Vfs_ram4NodeEE6PolicyD0Ev
W _ZN6Genode8Avl_treeIN7Vfs_ram4NodeEE6PolicyD1Ev
W _ZN6Genode8Avl_treeIN7Vfs_ram4NodeEE6PolicyD2Ev
W _ZN6Genode8Avl_treeINS_18Allocator_avl_base5BlockEE6Policy9recomputeEPNS_13Avl_node_baseE
W _ZN6Genode8Avl_treeINS_18Allocator_avl_base5BlockEE6PolicyD0Ev
W _ZN6Genode8Avl_treeINS_18Allocator_avl_base5BlockEE6PolicyD1Ev
W _ZN6Genode8Avl_treeINS_18Allocator_avl_base5BlockEE6PolicyD2Ev
W _ZN6Genode8snprintfEPcjPKcz
W _ZN6Genode8Xml_node23skip_non_tag_charactersENS_5TokenINS_13Xml_attribute29Scanner_policy_xml_identifierEEE
W _ZN6Genode8Xml_node3TagC1ENS_5TokenINS_13Xml_attribute29Scanner_policy_xml_identifierEEE
W _ZN6Genode8Xml_node3TagC2ENS_5TokenINS_13Xml_attribute29Scanner_policy_xml_identifierEEE
W _ZN6Genode8Xml_node7CommentC1ENS_5TokenINS_13Xml_attribute29Scanner_policy_xml_identifierEEE
W _ZN6Genode8Xml_node7CommentC2ENS_5TokenINS_13Xml_attribute29Scanner_policy_xml_identifierEEE
W _ZN6Genode8Xml_nodeC1EPKcj
W _ZN6Genode8Xml_nodeC2EPKcj
W _ZN6Genode9Allocator5allocEj
W _ZN6Genode9Path_base15remove_trailingEcPc
W _ZN6Genode9Path_base21strip_double_dot_dirsEPc
W _ZN6Genode9Path_base7_appendEPKc
W _ZN6Genode9Path_base7_importEPKcS2_
W _ZN6Genode9SemaphoreD1Ev
W _ZN6Genode9SemaphoreD2Ev
W _ZN6Malloc4freeEPvj
W _ZN6Malloc5allocEjPPv
W _ZN6MallocD0Ev
W _ZN6MallocD1Ev
W _ZN6MallocD2Ev
W _ZN7Vfs_ram4File4readEPcjy
W _ZN7Vfs_ram4File6lengthEv
W _ZN7Vfs_ram4FileD0Ev
W _ZN7Vfs_ram4FileD1Ev
W _ZN7Vfs_ram4FileD2Ev
W _ZN7Vfs_ram4Node5indexERx
W _ZN7Vfs_ram4NodeC1EPKc
W _ZN7Vfs_ram4NodeC2EPKc
W _ZN7Vfs_ram7Symlink6lengthEv
W _ZN7Vfs_ram7SymlinkD0Ev
W _ZN7Vfs_ram7SymlinkD1Ev
W _ZN7Vfs_ram7SymlinkD2Ev
W _ZN7Vfs_ram9Directory5childEPKc
W _ZN7Vfs_ram9Directory5emptyERN6Genode9AllocatorE
W _ZN7Vfs_ram9Directory6lengthEv
W _ZN7Vfs_ram9DirectoryD0Ev
W _ZN7Vfs_ram9DirectoryD1Ev
W _ZN7Vfs_ram9DirectoryD2Ev
W _ZN8Terminal10ConnectionD1Ev
W _ZN8Terminal10ConnectionD2Ev
W _ZN8Terminal14Session_client14connected_sighEN6Genode10CapabilityINS1_14Signal_contextEEE
W _ZN8Terminal14Session_client15read_avail_sighEN6Genode10CapabilityINS1_14Signal_contextEEE
W _ZN8Terminal14Session_client4readEPvj
W _ZN8Terminal14Session_client4sizeEv
W _ZN8Terminal14Session_client5availEv
W _ZN8Terminal14Session_client5writeEPKvj
W _ZNK11File_system10Chunk_base18assert_valid_rangeEyjy
W _ZNK11File_system11Chunk_indexILj64ENS0_ILj64ENS0_ILj128ENS_5ChunkILj4096EEEEEEEE9used_sizeEv
W _ZNK6Genode10CapabilityI11Task_resumeE5_callINS1_10Rpc_resumeEEEvRNT_11Client_argsERNS5_8Ret_typeE
W _ZNK6Genode10CapabilityIN11File_system7SessionEE5_callINS2_10Rpc_statusEEEvRNT_11Client_argsERNS6_8Ret_typeE
W _ZNK6Genode10CapabilityIN11File_system7SessionEE5_callINS2_10Rpc_tx_capEEEvRNT_11Client_argsERNS6_8Ret_typeE
W _ZNK6Genode10CapabilityIN11File_system7SessionEE5_callINS2_10Rpc_unlinkEEEvRNT_11Client_argsERNS6_8Ret_typeE
W _ZNK6Genode10CapabilityIN11File_system7SessionEE5_callINS2_11Rpc_controlEEEvRNT_11Client_argsERNS6_8Ret_typeE
W _ZNK6Genode10CapabilityIN11File_system7SessionEE5_callINS2_11Rpc_symlinkEEEvRNT_11Client_argsERNS6_8Ret_typeE
W _ZNK6Genode10CapabilityIN11File_system7SessionEE5_callINS2_12Rpc_truncateEEEvRNT_11Client_argsERNS6_8Ret_typeE
W _ZNK6Genode10CapabilityIN11File_system7SessionEE5_callINS2_7Rpc_dirEEEvRNT_11Client_argsERNS6_8Ret_typeE
W _ZNK6Genode10CapabilityIN11File_system7SessionEE5_callINS2_8Rpc_fileEEEvRNT_11Client_argsERNS6_8Ret_typeE
W _ZNK6Genode10CapabilityIN11File_system7SessionEE5_callINS2_8Rpc_moveEEEvRNT_11Client_argsERNS6_8Ret_typeE
W _ZNK6Genode10CapabilityIN11File_system7SessionEE5_callINS2_8Rpc_nodeEEEvRNT_11Client_argsERNS6_8Ret_typeE
W _ZNK6Genode10CapabilityIN11File_system7SessionEE5_callINS2_8Rpc_sighEEEvRNT_11Client_argsERNS6_8Ret_typeE
W _ZNK6Genode10CapabilityIN11File_system7SessionEE5_callINS2_8Rpc_syncEEEvRNT_11Client_argsERNS6_8Ret_typeE
W _ZNK6Genode10CapabilityIN11File_system7SessionEE5_callINS2_9Rpc_closeEEEvRNT_11Client_argsERNS6_8Ret_typeE
W _ZNK6Genode10CapabilityIN16Packet_stream_tx7ChannelINS_20Packet_stream_policyIN11File_system17Packet_descriptorELj16ELj16EcEEEEE5_callINS7_13Rpc_ack_availEEEvRNT_11Client_argsERNSB_8Ret_typeE
W _ZNK6Genode10CapabilityIN16Packet_stream_tx7ChannelINS_20Packet_stream_policyIN11File_system17Packet_descriptorELj16ELj16EcEEEEE5_callINS7_13Rpc_dataspaceEEEvRNT_11Client_argsERNSB_8Ret_typeE
W _ZNK6Genode10CapabilityIN16Packet_stream_tx7ChannelINS_20Packet_stream_policyIN11File_system17Packet_descriptorELj16ELj16EcEEEEE5_callINS7_16Rpc_packet_availEEEvRNT_11Client_argsERNSB_8Ret_typeE
W _ZNK6Genode10CapabilityIN16Packet_stream_tx7ChannelINS_20Packet_stream_policyIN11File_system17Packet_descriptorELj16ELj16EcEEEEE5_callINS7_16Rpc_ready_to_ackEEEvRNT_11Client_argsERNSB_8Ret_typeE
W _ZNK6Genode10CapabilityIN16Packet_stream_tx7ChannelINS_20Packet_stream_policyIN11File_system17Packet_descriptorELj16ELj16EcEEEEE5_callINS7_19Rpc_ready_to_submitEEEvRNT_11Client_argsERNSB_8Ret_typeE
W _ZNK6Genode10CapabilityIN16Packet_stream_tx7ChannelINS_20Packet_stream_policyIN5Block17Packet_descriptorELj256ELj256EcEEEEE5_callINS7_13Rpc_ack_availEEEvRNT_11Client_argsERNSB_8Ret_typeE
W _ZNK6Genode10CapabilityIN16Packet_stream_tx7ChannelINS_20Packet_stream_policyIN5Block17Packet_descriptorELj256ELj256EcEEEEE5_callINS7_13Rpc_dataspaceEEEvRNT_11Client_argsERNSB_8Ret_typeE
W _ZNK6Genode10CapabilityIN16Packet_stream_tx7ChannelINS_20Packet_stream_policyIN5Block17Packet_descriptorELj256ELj256EcEEEEE5_callINS7_16Rpc_packet_availEEEvRNT_11Client_argsERNSB_8Ret_typeE
W _ZNK6Genode10CapabilityIN16Packet_stream_tx7ChannelINS_20Packet_stream_policyIN5Block17Packet_descriptorELj256ELj256EcEEEEE5_callINS7_16Rpc_ready_to_ackEEEvRNT_11Client_argsERNSB_8Ret_typeE
W _ZNK6Genode10CapabilityIN16Packet_stream_tx7ChannelINS_20Packet_stream_policyIN5Block17Packet_descriptorELj256ELj256EcEEEEE5_callINS7_19Rpc_ready_to_submitEEEvRNT_11Client_argsERNSB_8Ret_typeE
W _ZNK6Genode10CapabilityIN3Rtc7SessionEE5_callINS2_16Rpc_current_timeEEEvRNT_11Client_argsERNS6_8Ret_typeE
W _ZNK6Genode10CapabilityIN5Block7SessionEE5_callINS2_10Rpc_tx_capEEEvRNT_11Client_argsERNS6_8Ret_typeE
W _ZNK6Genode10CapabilityIN5Block7SessionEE5_callINS2_8Rpc_infoEEEvRNT_11Client_argsERNS6_8Ret_typeE
W _ZNK6Genode10CapabilityIN5Block7SessionEE5_callINS2_8Rpc_syncEEEvRNT_11Client_argsERNS6_8Ret_typeE
W _ZNK6Genode10CapabilityIN5Timer7SessionEE5_callINS2_14Rpc_elapsed_msEEEvRNT_11Client_argsERNS6_8Ret_typeE
W _ZNK6Genode10CapabilityIN8Terminal7SessionEE5_callINS2_13Rpc_dataspaceEEEvRNT_11Client_argsERNS6_8Ret_typeE
W _ZNK6Genode10CapabilityIN8Terminal7SessionEE5_callINS2_18Rpc_connected_sighEEEvRNT_11Client_argsERNS6_8Ret_typeE
W _ZNK6Genode10CapabilityIN8Terminal7SessionEE5_callINS2_19Rpc_read_avail_sighEEEvRNT_11Client_argsERNS6_8Ret_typeE
W _ZNK6Genode10CapabilityIN8Terminal7SessionEE5_callINS2_8Rpc_readEEEvRNT_11Client_argsERNS6_8Ret_typeE
W _ZNK6Genode10CapabilityIN8Terminal7SessionEE5_callINS2_8Rpc_sizeEEEvRNT_11Client_argsERNS6_8Ret_typeE
W _ZNK6Genode10CapabilityIN8Terminal7SessionEE5_callINS2_9Rpc_availEEEvRNT_11Client_argsERNS6_8Ret_typeE
W _ZNK6Genode10CapabilityIN8Terminal7SessionEE5_callINS2_9Rpc_writeEEEvRNT_11Client_argsERNS6_8Ret_typeE
W _ZNK6Genode10CapabilityINS_11Log_sessionEE5_callINS1_9Rpc_writeEEEvRNT_11Client_argsERNS5_8Ret_typeE
W _ZNK6Genode10CapabilityINS_11Rom_sessionEE5_callINS1_10Rpc_updateEEEvRNT_11Client_argsERNS5_8Ret_typeE
W _ZNK6Genode10CapabilityINS_11Rom_sessionEE5_callINS1_13Rpc_dataspaceEEEvRNT_11Client_argsERNS5_8Ret_typeE
W _ZNK6Genode10CapabilityINS_11Rom_sessionEE5_callINS1_8Rpc_sighEEEvRNT_11Client_argsERNS5_8Ret_typeE
W _ZNK6Genode10CapabilityINS_9DataspaceEE5_callINS1_12Rpc_writableEEEvRNT_11Client_argsERNS5_8Ret_typeE
W _ZNK6Genode10CapabilityINS_9DataspaceEE5_callINS1_13Rpc_phys_addrEEEvRNT_11Client_argsERNS5_8Ret_typeE
W _ZNK6Genode10CapabilityINS_9DataspaceEE5_callINS1_8Rpc_sizeEEEvRNT_11Client_argsERNS5_8Ret_typeE
W _ZNK6Genode13Xml_attribute5valueEPcj
W _ZNK6Genode18Allocator_avl_base18need_size_for_freeEv
W _ZNK6Genode18Allocator_avl_base8overheadEj
W _ZNK6Genode4Slab18need_size_for_freeEv
W _ZNK6Genode4Slab8overheadEj
W _ZNK6Genode5TokenIN3Vfs15Tar_file_system27Scanner_policy_path_elementEE5_typeEj
W _ZNK6Genode5TokenIN3Vfs15Tar_file_system27Scanner_policy_path_elementEE9_calc_lenEj
W _ZNK6Genode5TokenINS_13Xml_attribute29Scanner_policy_xml_identifierEE14eat_whitespaceEv
W _ZNK6Genode5TokenINS_13Xml_attribute29Scanner_policy_xml_identifierEE4nextEv
W _ZNK6Genode5TokenINS_13Xml_attribute29Scanner_policy_xml_identifierEE5_typeEj
W _ZNK6Genode5TokenINS_13Xml_attribute29Scanner_policy_xml_identifierEE9_calc_lenEj
W _ZNK6Genode8Avl_treeIN7Vfs_ram4NodeEE6Policy6higherEPNS_13Avl_node_baseES6_
W _ZNK6Genode8Avl_treeINS_18Allocator_avl_base5BlockEE6Policy6higherEPNS_13Avl_node_baseES6_
W _ZNK6Genode8Xml_node3Tag10next_tokenEv
W _ZNK6Genode8Xml_node8has_typeEPKc
W _ZNK6Genode8Xml_node8sub_nodeEPKc
W _ZNK6Genode8Xml_node9attributeEPKc
W _ZNK6Genode9Allocator8consumedEv
W _ZNK6Malloc18need_size_for_freeEv
W _ZNK6Malloc8overheadEj
W _ZThn4_N3Vfs14Fs_file_system4readEPNS_10Vfs_handleEPcyRy
W _ZThn4_N3Vfs14Fs_file_system5writeEPNS_10Vfs_handleEPKcyRy
W _ZThn4_N3Vfs14Fs_file_system9ftruncateEPNS_10Vfs_handleEy
W _ZThn4_N3Vfs15Dir_file_system4readEPNS_10Vfs_handleEPcyRy
W _ZThn4_N3Vfs15Dir_file_system5writeEPNS_10Vfs_handleEPKcyRy
W _ZThn4_N3Vfs15Dir_file_system9ftruncateEPNS_10Vfs_handleEy
W _ZThn4_N3Vfs15Log_file_system4readEPNS_10Vfs_handleEPcyRy
W _ZThn4_N3Vfs15Log_file_system5writeEPNS_10Vfs_handleEPKcyRy
W _ZThn4_N3Vfs15Ram_file_system4readEPNS_10Vfs_handleEPcyRy
W _ZThn4_N3Vfs15Ram_file_system5writeEPNS_10Vfs_handleEPKcyRy
W _ZThn4_N3Vfs15Ram_file_system9ftruncateEPNS_10Vfs_handleEy
W _ZThn4_N3Vfs15Rom_file_system4readEPNS_10Vfs_handleEPcyRy
W _ZThn4_N3Vfs15Rom_file_system5writeEPNS_10Vfs_handleEPKcyRy
W _ZThn4_N3Vfs15Rtc_file_system4readEPNS_10Vfs_handleEPcyRy
W _ZThn4_N3Vfs15Rtc_file_system5writeEPNS_10Vfs_handleEPKcyRy
W _ZThn4_N3Vfs15Tar_file_system4readEPNS_10Vfs_handleEPcyRy
W _ZThn4_N3Vfs15Tar_file_system5writeEPNS_10Vfs_handleEPKcyRy
W _ZThn4_N3Vfs15Tar_file_system9ftruncateEPNS_10Vfs_handleEy
W _ZThn4_N3Vfs16Null_file_system4readEPNS_10Vfs_handleEPcyRy
W _ZThn4_N3Vfs16Null_file_system5writeEPNS_10Vfs_handleEPKcyRy
W _ZThn4_N3Vfs16Null_file_system9ftruncateEPNS_10Vfs_handleEy
W _ZThn4_N3Vfs16Zero_file_system4readEPNS_10Vfs_handleEPcyRy
W _ZThn4_N3Vfs16Zero_file_system5writeEPNS_10Vfs_handleEPKcyRy
W _ZThn4_N3Vfs17Block_file_system4readEPNS_10Vfs_handleEPcyRy
W _ZThn4_N3Vfs17Block_file_system5ioctlEPNS_10Vfs_handleENS_15File_io_service12Ioctl_opcodeEmRNS3_9Ioctl_outE
W _ZThn4_N3Vfs17Block_file_system5writeEPNS_10Vfs_handleEPKcyRy
W _ZThn4_N3Vfs17Block_file_system9ftruncateEPNS_10Vfs_handleEy
W _ZThn4_N3Vfs18Inline_file_system4readEPNS_10Vfs_handleEPcyRy
W _ZThn4_N3Vfs18Inline_file_system5writeEPNS_10Vfs_handleEPKcyRy
W _ZThn4_N3Vfs18Single_file_system9ftruncateEPNS_10Vfs_handleEy
W _ZThn4_N3Vfs19Symlink_file_system4readEPNS_10Vfs_handleEPcyRy
W _ZThn4_N3Vfs19Symlink_file_system5writeEPNS_10Vfs_handleEPKcyRy
W _ZThn4_N3Vfs19Symlink_file_system9ftruncateEPNS_10Vfs_handleEy
W _ZThn4_N3Vfs20Terminal_file_system13check_unblockEPNS_10Vfs_handleEbbb
W _ZThn4_N3Vfs20Terminal_file_system24register_read_ready_sighEPNS_10Vfs_handleEN6Genode10CapabilityINS3_14Signal_contextEEE
W _ZThn4_N3Vfs20Terminal_file_system4readEPNS_10Vfs_handleEPcyRy
W _ZThn4_N3Vfs20Terminal_file_system5writeEPNS_10Vfs_handleEPKcyRy
W _ZThn4_N3Vfs20Terminal_file_system9ftruncateEPNS_10Vfs_handleEy
